
BLE_Ota.elf:     file format elf32-littlearm

Sections:
Idx Name          Size      VMA       LMA       File off  Algn
  0 .isr_vector   0000013c  08010000  08010000  00010000  2**0
                  CONTENTS, ALLOC, LOAD, READONLY, DATA
  1 .text         00003d0c  0801013c  0801013c  0001013c  2**2
                  CONTENTS, ALLOC, LOAD, READONLY, CODE
  2 .RamFunc      00000030  08013e48  08013e48  00013e48  2**2
                  CONTENTS, ALLOC, LOAD, READONLY, CODE
  3 .rodata       000002ac  08013e78  08013e78  00013e78  2**2
                  CONTENTS, ALLOC, LOAD, READONLY, DATA
  4 .ARM          00000008  08014124  08014124  00014124  2**2
                  CONTENTS, ALLOC, LOAD, READONLY, DATA
  5 .init_array   00000004  0801412c  0801412c  0001412c  2**2
                  CONTENTS, ALLOC, LOAD, DATA
  6 .fini_array   00000004  08014130  08014130  00014130  2**2
                  CONTENTS, ALLOC, LOAD, DATA
  7 .data         0000003c  20001010  08014134  00021010  2**2
                  CONTENTS, ALLOC, LOAD, DATA
  8 TIMERSERVER_CONTEXT 00000099  2000104c  08014170  0002104c  2**2
                  CONTENTS, ALLOC, LOAD, DATA
  9 BLE_DRIVER_CONTEXT 0000003e  200010e8  08014209  000210e8  2**2
                  CONTENTS, ALLOC, LOAD, DATA
 10 SYSTEM_DRIVER_CONTEXT 00000011  20001128  08014247  00021128  2**2
                  CONTENTS, ALLOC, LOAD, DATA
 11 .bss          000012b4  20001140  08014258  00021140  2**3
                  ALLOC
 12 ._user_heap_stack 00001104  200023f4  08014258  000223f4  2**0
                  ALLOC
 13 .ARM.attributes 00000030  00000000  00000000  00021139  2**0
                  CONTENTS, READONLY
 14 MAPPING_TABLE 00000028  20030000  20030000  00030000  2**2
                  ALLOC
 15 MB_MEM1       000001b8  20030028  20030028  00030000  2**2
                  ALLOC
 16 MB_MEM2       00000877  200301e0  200301e0  00030000  2**2
                  ALLOC
 17 .comment      00000053  00000000  00000000  00021169  2**0
                  CONTENTS, READONLY
 18 .debug_frame  000000d4  00000000  00000000  000211bc  2**2
                  CONTENTS, READONLY, DEBUGGING, OCTETS

Disassembly of section .text:

0801013c <__do_global_dtors_aux>:
 801013c:	b510      	push	{r4, lr}
 801013e:	4c05      	ldr	r4, [pc, #20]	; (8010154 <__do_global_dtors_aux+0x18>)
 8010140:	7823      	ldrb	r3, [r4, #0]
 8010142:	b933      	cbnz	r3, 8010152 <__do_global_dtors_aux+0x16>
 8010144:	4b04      	ldr	r3, [pc, #16]	; (8010158 <__do_global_dtors_aux+0x1c>)
 8010146:	b113      	cbz	r3, 801014e <__do_global_dtors_aux+0x12>
 8010148:	4804      	ldr	r0, [pc, #16]	; (801015c <__do_global_dtors_aux+0x20>)
 801014a:	f3af 8000 	nop.w
 801014e:	2301      	movs	r3, #1
 8010150:	7023      	strb	r3, [r4, #0]
 8010152:	bd10      	pop	{r4, pc}
 8010154:	20001140 	.word	0x20001140
 8010158:	00000000 	.word	0x00000000
 801015c:	08013e30 	.word	0x08013e30

08010160 <frame_dummy>:
 8010160:	b508      	push	{r3, lr}
 8010162:	4b03      	ldr	r3, [pc, #12]	; (8010170 <frame_dummy+0x10>)
 8010164:	b11b      	cbz	r3, 801016e <frame_dummy+0xe>
 8010166:	4903      	ldr	r1, [pc, #12]	; (8010174 <frame_dummy+0x14>)
 8010168:	4803      	ldr	r0, [pc, #12]	; (8010178 <frame_dummy+0x18>)
 801016a:	f3af 8000 	nop.w
 801016e:	bd08      	pop	{r3, pc}
 8010170:	00000000 	.word	0x00000000
 8010174:	20001144 	.word	0x20001144
 8010178:	08013e30 	.word	0x08013e30

0801017c <__aeabi_uldivmod>:
 801017c:	b953      	cbnz	r3, 8010194 <__aeabi_uldivmod+0x18>
 801017e:	b94a      	cbnz	r2, 8010194 <__aeabi_uldivmod+0x18>
 8010180:	2900      	cmp	r1, #0
 8010182:	bf08      	it	eq
 8010184:	2800      	cmpeq	r0, #0
 8010186:	bf1c      	itt	ne
 8010188:	f04f 31ff 	movne.w	r1, #4294967295	; 0xffffffff
 801018c:	f04f 30ff 	movne.w	r0, #4294967295	; 0xffffffff
 8010190:	f000 b96e 	b.w	8010470 <__aeabi_idiv0>
 8010194:	f1ad 0c08 	sub.w	ip, sp, #8
 8010198:	e96d ce04 	strd	ip, lr, [sp, #-16]!
 801019c:	f000 f806 	bl	80101ac <__udivmoddi4>
 80101a0:	f8dd e004 	ldr.w	lr, [sp, #4]
 80101a4:	e9dd 2302 	ldrd	r2, r3, [sp, #8]
 80101a8:	b004      	add	sp, #16
 80101aa:	4770      	bx	lr

080101ac <__udivmoddi4>:
 80101ac:	e92d 47f0 	stmdb	sp!, {r4, r5, r6, r7, r8, r9, sl, lr}
 80101b0:	9d08      	ldr	r5, [sp, #32]
 80101b2:	4604      	mov	r4, r0
 80101b4:	468c      	mov	ip, r1
 80101b6:	2b00      	cmp	r3, #0
 80101b8:	f040 8083 	bne.w	80102c2 <__udivmoddi4+0x116>
 80101bc:	428a      	cmp	r2, r1
 80101be:	4617      	mov	r7, r2
 80101c0:	d947      	bls.n	8010252 <__udivmoddi4+0xa6>
 80101c2:	fab2 f282 	clz	r2, r2
 80101c6:	b142      	cbz	r2, 80101da <__udivmoddi4+0x2e>
 80101c8:	f1c2 0020 	rsb	r0, r2, #32
 80101cc:	fa24 f000 	lsr.w	r0, r4, r0
 80101d0:	4091      	lsls	r1, r2
 80101d2:	4097      	lsls	r7, r2
 80101d4:	ea40 0c01 	orr.w	ip, r0, r1
 80101d8:	4094      	lsls	r4, r2
 80101da:	ea4f 4817 	mov.w	r8, r7, lsr #16
 80101de:	0c23      	lsrs	r3, r4, #16
 80101e0:	fbbc f6f8 	udiv	r6, ip, r8
 80101e4:	fa1f fe87 	uxth.w	lr, r7
 80101e8:	fb08 c116 	mls	r1, r8, r6, ip
 80101ec:	ea43 4301 	orr.w	r3, r3, r1, lsl #16
 80101f0:	fb06 f10e 	mul.w	r1, r6, lr
 80101f4:	4299      	cmp	r1, r3
 80101f6:	d909      	bls.n	801020c <__udivmoddi4+0x60>
 80101f8:	18fb      	adds	r3, r7, r3
 80101fa:	f106 30ff 	add.w	r0, r6, #4294967295	; 0xffffffff
 80101fe:	f080 8119 	bcs.w	8010434 <__udivmoddi4+0x288>
 8010202:	4299      	cmp	r1, r3
 8010204:	f240 8116 	bls.w	8010434 <__udivmoddi4+0x288>
 8010208:	3e02      	subs	r6, #2
 801020a:	443b      	add	r3, r7
 801020c:	1a5b      	subs	r3, r3, r1
 801020e:	b2a4      	uxth	r4, r4
 8010210:	fbb3 f0f8 	udiv	r0, r3, r8
 8010214:	fb08 3310 	mls	r3, r8, r0, r3
 8010218:	ea44 4403 	orr.w	r4, r4, r3, lsl #16
 801021c:	fb00 fe0e 	mul.w	lr, r0, lr
 8010220:	45a6      	cmp	lr, r4
 8010222:	d909      	bls.n	8010238 <__udivmoddi4+0x8c>
 8010224:	193c      	adds	r4, r7, r4
 8010226:	f100 33ff 	add.w	r3, r0, #4294967295	; 0xffffffff
 801022a:	f080 8105 	bcs.w	8010438 <__udivmoddi4+0x28c>
 801022e:	45a6      	cmp	lr, r4
 8010230:	f240 8102 	bls.w	8010438 <__udivmoddi4+0x28c>
 8010234:	3802      	subs	r0, #2
 8010236:	443c      	add	r4, r7
 8010238:	ea40 4006 	orr.w	r0, r0, r6, lsl #16
 801023c:	eba4 040e 	sub.w	r4, r4, lr
 8010240:	2600      	movs	r6, #0
 8010242:	b11d      	cbz	r5, 801024c <__udivmoddi4+0xa0>
 8010244:	40d4      	lsrs	r4, r2
 8010246:	2300      	movs	r3, #0
 8010248:	e9c5 4300 	strd	r4, r3, [r5]
 801024c:	4631      	mov	r1, r6
 801024e:	e8bd 87f0 	ldmia.w	sp!, {r4, r5, r6, r7, r8, r9, sl, pc}
 8010252:	b902      	cbnz	r2, 8010256 <__udivmoddi4+0xaa>
 8010254:	deff      	udf	#255	; 0xff
 8010256:	fab2 f282 	clz	r2, r2
 801025a:	2a00      	cmp	r2, #0
 801025c:	d150      	bne.n	8010300 <__udivmoddi4+0x154>
 801025e:	1bcb      	subs	r3, r1, r7
 8010260:	ea4f 4e17 	mov.w	lr, r7, lsr #16
 8010264:	fa1f f887 	uxth.w	r8, r7
 8010268:	2601      	movs	r6, #1
 801026a:	fbb3 fcfe 	udiv	ip, r3, lr
 801026e:	0c21      	lsrs	r1, r4, #16
 8010270:	fb0e 331c 	mls	r3, lr, ip, r3
 8010274:	ea41 4103 	orr.w	r1, r1, r3, lsl #16
 8010278:	fb08 f30c 	mul.w	r3, r8, ip
 801027c:	428b      	cmp	r3, r1
 801027e:	d907      	bls.n	8010290 <__udivmoddi4+0xe4>
 8010280:	1879      	adds	r1, r7, r1
 8010282:	f10c 30ff 	add.w	r0, ip, #4294967295	; 0xffffffff
 8010286:	d202      	bcs.n	801028e <__udivmoddi4+0xe2>
 8010288:	428b      	cmp	r3, r1
 801028a:	f200 80e9 	bhi.w	8010460 <__udivmoddi4+0x2b4>
 801028e:	4684      	mov	ip, r0
 8010290:	1ac9      	subs	r1, r1, r3
 8010292:	b2a3      	uxth	r3, r4
 8010294:	fbb1 f0fe 	udiv	r0, r1, lr
 8010298:	fb0e 1110 	mls	r1, lr, r0, r1
 801029c:	ea43 4401 	orr.w	r4, r3, r1, lsl #16
 80102a0:	fb08 f800 	mul.w	r8, r8, r0
 80102a4:	45a0      	cmp	r8, r4
 80102a6:	d907      	bls.n	80102b8 <__udivmoddi4+0x10c>
 80102a8:	193c      	adds	r4, r7, r4
 80102aa:	f100 33ff 	add.w	r3, r0, #4294967295	; 0xffffffff
 80102ae:	d202      	bcs.n	80102b6 <__udivmoddi4+0x10a>
 80102b0:	45a0      	cmp	r8, r4
 80102b2:	f200 80d9 	bhi.w	8010468 <__udivmoddi4+0x2bc>
 80102b6:	4618      	mov	r0, r3
 80102b8:	eba4 0408 	sub.w	r4, r4, r8
 80102bc:	ea40 400c 	orr.w	r0, r0, ip, lsl #16
 80102c0:	e7bf      	b.n	8010242 <__udivmoddi4+0x96>
 80102c2:	428b      	cmp	r3, r1
 80102c4:	d909      	bls.n	80102da <__udivmoddi4+0x12e>
 80102c6:	2d00      	cmp	r5, #0
 80102c8:	f000 80b1 	beq.w	801042e <__udivmoddi4+0x282>
 80102cc:	2600      	movs	r6, #0
 80102ce:	e9c5 0100 	strd	r0, r1, [r5]
 80102d2:	4630      	mov	r0, r6
 80102d4:	4631      	mov	r1, r6
 80102d6:	e8bd 87f0 	ldmia.w	sp!, {r4, r5, r6, r7, r8, r9, sl, pc}
 80102da:	fab3 f683 	clz	r6, r3
 80102de:	2e00      	cmp	r6, #0
 80102e0:	d14a      	bne.n	8010378 <__udivmoddi4+0x1cc>
 80102e2:	428b      	cmp	r3, r1
 80102e4:	d302      	bcc.n	80102ec <__udivmoddi4+0x140>
 80102e6:	4282      	cmp	r2, r0
 80102e8:	f200 80b8 	bhi.w	801045c <__udivmoddi4+0x2b0>
 80102ec:	1a84      	subs	r4, r0, r2
 80102ee:	eb61 0103 	sbc.w	r1, r1, r3
 80102f2:	2001      	movs	r0, #1
 80102f4:	468c      	mov	ip, r1
 80102f6:	2d00      	cmp	r5, #0
 80102f8:	d0a8      	beq.n	801024c <__udivmoddi4+0xa0>
 80102fa:	e9c5 4c00 	strd	r4, ip, [r5]
 80102fe:	e7a5      	b.n	801024c <__udivmoddi4+0xa0>
 8010300:	f1c2 0320 	rsb	r3, r2, #32
 8010304:	fa20 f603 	lsr.w	r6, r0, r3
 8010308:	4097      	lsls	r7, r2
 801030a:	fa01 f002 	lsl.w	r0, r1, r2
 801030e:	ea4f 4e17 	mov.w	lr, r7, lsr #16
 8010312:	40d9      	lsrs	r1, r3
 8010314:	4330      	orrs	r0, r6
 8010316:	0c03      	lsrs	r3, r0, #16
 8010318:	fbb1 f6fe 	udiv	r6, r1, lr
 801031c:	fa1f f887 	uxth.w	r8, r7
 8010320:	fb0e 1116 	mls	r1, lr, r6, r1
 8010324:	ea43 4301 	orr.w	r3, r3, r1, lsl #16
 8010328:	fb06 f108 	mul.w	r1, r6, r8
 801032c:	4299      	cmp	r1, r3
 801032e:	fa04 f402 	lsl.w	r4, r4, r2
 8010332:	d909      	bls.n	8010348 <__udivmoddi4+0x19c>
 8010334:	18fb      	adds	r3, r7, r3
 8010336:	f106 3cff 	add.w	ip, r6, #4294967295	; 0xffffffff
 801033a:	f080 808d 	bcs.w	8010458 <__udivmoddi4+0x2ac>
 801033e:	4299      	cmp	r1, r3
 8010340:	f240 808a 	bls.w	8010458 <__udivmoddi4+0x2ac>
 8010344:	3e02      	subs	r6, #2
 8010346:	443b      	add	r3, r7
 8010348:	1a5b      	subs	r3, r3, r1
 801034a:	b281      	uxth	r1, r0
 801034c:	fbb3 f0fe 	udiv	r0, r3, lr
 8010350:	fb0e 3310 	mls	r3, lr, r0, r3
 8010354:	ea41 4103 	orr.w	r1, r1, r3, lsl #16
 8010358:	fb00 f308 	mul.w	r3, r0, r8
 801035c:	428b      	cmp	r3, r1
 801035e:	d907      	bls.n	8010370 <__udivmoddi4+0x1c4>
 8010360:	1879      	adds	r1, r7, r1
 8010362:	f100 3cff 	add.w	ip, r0, #4294967295	; 0xffffffff
 8010366:	d273      	bcs.n	8010450 <__udivmoddi4+0x2a4>
 8010368:	428b      	cmp	r3, r1
 801036a:	d971      	bls.n	8010450 <__udivmoddi4+0x2a4>
 801036c:	3802      	subs	r0, #2
 801036e:	4439      	add	r1, r7
 8010370:	1acb      	subs	r3, r1, r3
 8010372:	ea40 4606 	orr.w	r6, r0, r6, lsl #16
 8010376:	e778      	b.n	801026a <__udivmoddi4+0xbe>
 8010378:	f1c6 0c20 	rsb	ip, r6, #32
 801037c:	fa03 f406 	lsl.w	r4, r3, r6
 8010380:	fa22 f30c 	lsr.w	r3, r2, ip
 8010384:	431c      	orrs	r4, r3
 8010386:	fa20 f70c 	lsr.w	r7, r0, ip
 801038a:	fa01 f306 	lsl.w	r3, r1, r6
 801038e:	ea4f 4e14 	mov.w	lr, r4, lsr #16
 8010392:	fa21 f10c 	lsr.w	r1, r1, ip
 8010396:	431f      	orrs	r7, r3
 8010398:	0c3b      	lsrs	r3, r7, #16
 801039a:	fbb1 f9fe 	udiv	r9, r1, lr
 801039e:	fa1f f884 	uxth.w	r8, r4
 80103a2:	fb0e 1119 	mls	r1, lr, r9, r1
 80103a6:	ea43 4101 	orr.w	r1, r3, r1, lsl #16
 80103aa:	fb09 fa08 	mul.w	sl, r9, r8
 80103ae:	458a      	cmp	sl, r1
 80103b0:	fa02 f206 	lsl.w	r2, r2, r6
 80103b4:	fa00 f306 	lsl.w	r3, r0, r6
 80103b8:	d908      	bls.n	80103cc <__udivmoddi4+0x220>
 80103ba:	1861      	adds	r1, r4, r1
 80103bc:	f109 30ff 	add.w	r0, r9, #4294967295	; 0xffffffff
 80103c0:	d248      	bcs.n	8010454 <__udivmoddi4+0x2a8>
 80103c2:	458a      	cmp	sl, r1
 80103c4:	d946      	bls.n	8010454 <__udivmoddi4+0x2a8>
 80103c6:	f1a9 0902 	sub.w	r9, r9, #2
 80103ca:	4421      	add	r1, r4
 80103cc:	eba1 010a 	sub.w	r1, r1, sl
 80103d0:	b2bf      	uxth	r7, r7
 80103d2:	fbb1 f0fe 	udiv	r0, r1, lr
 80103d6:	fb0e 1110 	mls	r1, lr, r0, r1
 80103da:	ea47 4701 	orr.w	r7, r7, r1, lsl #16
 80103de:	fb00 f808 	mul.w	r8, r0, r8
 80103e2:	45b8      	cmp	r8, r7
 80103e4:	d907      	bls.n	80103f6 <__udivmoddi4+0x24a>
 80103e6:	19e7      	adds	r7, r4, r7
 80103e8:	f100 31ff 	add.w	r1, r0, #4294967295	; 0xffffffff
 80103ec:	d22e      	bcs.n	801044c <__udivmoddi4+0x2a0>
 80103ee:	45b8      	cmp	r8, r7
 80103f0:	d92c      	bls.n	801044c <__udivmoddi4+0x2a0>
 80103f2:	3802      	subs	r0, #2
 80103f4:	4427      	add	r7, r4
 80103f6:	ea40 4009 	orr.w	r0, r0, r9, lsl #16
 80103fa:	eba7 0708 	sub.w	r7, r7, r8
 80103fe:	fba0 8902 	umull	r8, r9, r0, r2
 8010402:	454f      	cmp	r7, r9
 8010404:	46c6      	mov	lr, r8
 8010406:	4649      	mov	r1, r9
 8010408:	d31a      	bcc.n	8010440 <__udivmoddi4+0x294>
 801040a:	d017      	beq.n	801043c <__udivmoddi4+0x290>
 801040c:	b15d      	cbz	r5, 8010426 <__udivmoddi4+0x27a>
 801040e:	ebb3 020e 	subs.w	r2, r3, lr
 8010412:	eb67 0701 	sbc.w	r7, r7, r1
 8010416:	fa07 fc0c 	lsl.w	ip, r7, ip
 801041a:	40f2      	lsrs	r2, r6
 801041c:	ea4c 0202 	orr.w	r2, ip, r2
 8010420:	40f7      	lsrs	r7, r6
 8010422:	e9c5 2700 	strd	r2, r7, [r5]
 8010426:	2600      	movs	r6, #0
 8010428:	4631      	mov	r1, r6
 801042a:	e8bd 87f0 	ldmia.w	sp!, {r4, r5, r6, r7, r8, r9, sl, pc}
 801042e:	462e      	mov	r6, r5
 8010430:	4628      	mov	r0, r5
 8010432:	e70b      	b.n	801024c <__udivmoddi4+0xa0>
 8010434:	4606      	mov	r6, r0
 8010436:	e6e9      	b.n	801020c <__udivmoddi4+0x60>
 8010438:	4618      	mov	r0, r3
 801043a:	e6fd      	b.n	8010238 <__udivmoddi4+0x8c>
 801043c:	4543      	cmp	r3, r8
 801043e:	d2e5      	bcs.n	801040c <__udivmoddi4+0x260>
 8010440:	ebb8 0e02 	subs.w	lr, r8, r2
 8010444:	eb69 0104 	sbc.w	r1, r9, r4
 8010448:	3801      	subs	r0, #1
 801044a:	e7df      	b.n	801040c <__udivmoddi4+0x260>
 801044c:	4608      	mov	r0, r1
 801044e:	e7d2      	b.n	80103f6 <__udivmoddi4+0x24a>
 8010450:	4660      	mov	r0, ip
 8010452:	e78d      	b.n	8010370 <__udivmoddi4+0x1c4>
 8010454:	4681      	mov	r9, r0
 8010456:	e7b9      	b.n	80103cc <__udivmoddi4+0x220>
 8010458:	4666      	mov	r6, ip
 801045a:	e775      	b.n	8010348 <__udivmoddi4+0x19c>
 801045c:	4630      	mov	r0, r6
 801045e:	e74a      	b.n	80102f6 <__udivmoddi4+0x14a>
 8010460:	f1ac 0c02 	sub.w	ip, ip, #2
 8010464:	4439      	add	r1, r7
 8010466:	e713      	b.n	8010290 <__udivmoddi4+0xe4>
 8010468:	3802      	subs	r0, #2
 801046a:	443c      	add	r4, r7
 801046c:	e724      	b.n	80102b8 <__udivmoddi4+0x10c>
 801046e:	bf00      	nop

08010470 <__aeabi_idiv0>:
 8010470:	4770      	bx	lr
 8010472:	bf00      	nop

08010474 <LL_AHB2_GRP1_EnableClock>:
 8010474:	f04f 43b0 	mov.w	r3, #1476395008	; 0x58000000
 8010478:	b082      	sub	sp, #8
 801047a:	6cda      	ldr	r2, [r3, #76]	; 0x4c
 801047c:	4302      	orrs	r2, r0
 801047e:	64da      	str	r2, [r3, #76]	; 0x4c
 8010480:	6cdb      	ldr	r3, [r3, #76]	; 0x4c
 8010482:	4018      	ands	r0, r3
 8010484:	9001      	str	r0, [sp, #4]
 8010486:	9b01      	ldr	r3, [sp, #4]
 8010488:	b002      	add	sp, #8
 801048a:	4770      	bx	lr

0801048c <LL_C2_AHB2_GRP1_EnableClock>:
 801048c:	f04f 43b0 	mov.w	r3, #1476395008	; 0x58000000
 8010490:	b082      	sub	sp, #8
 8010492:	f8d3 214c 	ldr.w	r2, [r3, #332]	; 0x14c
 8010496:	4302      	orrs	r2, r0
 8010498:	f8c3 214c 	str.w	r2, [r3, #332]	; 0x14c
 801049c:	f8d3 314c 	ldr.w	r3, [r3, #332]	; 0x14c
 80104a0:	4018      	ands	r0, r3
 80104a2:	9001      	str	r0, [sp, #4]
 80104a4:	9b01      	ldr	r3, [sp, #4]
 80104a6:	b002      	add	sp, #8
 80104a8:	4770      	bx	lr
	...

080104ac <APPD_Init>:
 80104ac:	b5f0      	push	{r4, r5, r6, r7, lr}
 80104ae:	b087      	sub	sp, #28
 80104b0:	f001 fb30 	bl	8011b14 <HAL_DBGMCU_EnableDBGSleepMode>
 80104b4:	f001 fb36 	bl	8011b24 <HAL_DBGMCU_EnableDBGStopMode>
 80104b8:	4a34      	ldr	r2, [pc, #208]	; (801058c <APPD_Init+0xe0>)
 80104ba:	4f35      	ldr	r7, [pc, #212]	; (8010590 <APPD_Init+0xe4>)
 80104bc:	f8d2 3090 	ldr.w	r3, [r2, #144]	; 0x90
 80104c0:	f443 3380 	orr.w	r3, r3, #65536	; 0x10000
 80104c4:	f8c2 3090 	str.w	r3, [r2, #144]	; 0x90
 80104c8:	f003 fac4 	bl	8013a54 <DbgTraceInit>
 80104cc:	2214      	movs	r2, #20
 80104ce:	2100      	movs	r1, #0
 80104d0:	a801      	add	r0, sp, #4
 80104d2:	f003 fca5 	bl	8013e20 <memset>
 80104d6:	2300      	movs	r3, #0
 80104d8:	482e      	ldr	r0, [pc, #184]	; (8010594 <APPD_Init+0xe8>)
 80104da:	f8df c0bc 	ldr.w	ip, [pc, #188]	; 8010598 <APPD_Init+0xec>
 80104de:	461c      	mov	r4, r3
 80104e0:	461d      	mov	r5, r3
 80104e2:	461e      	mov	r6, r3
 80104e4:	eb00 02c3 	add.w	r2, r0, r3, lsl #3
 80104e8:	7991      	ldrb	r1, [r2, #6]
 80104ea:	b151      	cbz	r1, 8010502 <APPD_Init+0x56>
 80104ec:	f850 1033 	ldr.w	r1, [r0, r3, lsl #3]
 80104f0:	42b9      	cmp	r1, r7
 80104f2:	d045      	beq.n	8010580 <APPD_Init+0xd4>
 80104f4:	4561      	cmp	r1, ip
 80104f6:	d046      	beq.n	8010586 <APPD_Init+0xda>
 80104f8:	f1b1 4f90 	cmp.w	r1, #1207959552	; 0x48000000
 80104fc:	d101      	bne.n	8010502 <APPD_Init+0x56>
 80104fe:	8892      	ldrh	r2, [r2, #4]
 8010500:	4316      	orrs	r6, r2
 8010502:	3301      	adds	r3, #1
 8010504:	2b22      	cmp	r3, #34	; 0x22
 8010506:	d1ed      	bne.n	80104e4 <APPD_Init+0x38>
 8010508:	2001      	movs	r0, #1
 801050a:	2700      	movs	r7, #0
 801050c:	2303      	movs	r3, #3
 801050e:	e9cd 0702 	strd	r0, r7, [sp, #8]
 8010512:	9304      	str	r3, [sp, #16]
 8010514:	b186      	cbz	r6, 8010538 <APPD_Init+0x8c>
 8010516:	9601      	str	r6, [sp, #4]
 8010518:	f7ff ffac 	bl	8010474 <LL_AHB2_GRP1_EnableClock>
 801051c:	2001      	movs	r0, #1
 801051e:	f7ff ffb5 	bl	801048c <LL_C2_AHB2_GRP1_EnableClock>
 8010522:	a901      	add	r1, sp, #4
 8010524:	f04f 4090 	mov.w	r0, #1207959552	; 0x48000000
 8010528:	f001 fde6 	bl	80120f8 <HAL_GPIO_Init>
 801052c:	463a      	mov	r2, r7
 801052e:	4631      	mov	r1, r6
 8010530:	f04f 4090 	mov.w	r0, #1207959552	; 0x48000000
 8010534:	f001 fe96 	bl	8012264 <HAL_GPIO_WritePin>
 8010538:	b17d      	cbz	r5, 801055a <APPD_Init+0xae>
 801053a:	2002      	movs	r0, #2
 801053c:	9501      	str	r5, [sp, #4]
 801053e:	f7ff ff99 	bl	8010474 <LL_AHB2_GRP1_EnableClock>
 8010542:	2002      	movs	r0, #2
 8010544:	f7ff ffa2 	bl	801048c <LL_C2_AHB2_GRP1_EnableClock>
 8010548:	4811      	ldr	r0, [pc, #68]	; (8010590 <APPD_Init+0xe4>)
 801054a:	a901      	add	r1, sp, #4
 801054c:	f001 fdd4 	bl	80120f8 <HAL_GPIO_Init>
 8010550:	480f      	ldr	r0, [pc, #60]	; (8010590 <APPD_Init+0xe4>)
 8010552:	2200      	movs	r2, #0
 8010554:	4629      	mov	r1, r5
 8010556:	f001 fe85 	bl	8012264 <HAL_GPIO_WritePin>
 801055a:	b17c      	cbz	r4, 801057c <APPD_Init+0xd0>
 801055c:	2004      	movs	r0, #4
 801055e:	9401      	str	r4, [sp, #4]
 8010560:	f7ff ff88 	bl	8010474 <LL_AHB2_GRP1_EnableClock>
 8010564:	2004      	movs	r0, #4
 8010566:	f7ff ff91 	bl	801048c <LL_C2_AHB2_GRP1_EnableClock>
 801056a:	480b      	ldr	r0, [pc, #44]	; (8010598 <APPD_Init+0xec>)
 801056c:	a901      	add	r1, sp, #4
 801056e:	f001 fdc3 	bl	80120f8 <HAL_GPIO_Init>
 8010572:	4809      	ldr	r0, [pc, #36]	; (8010598 <APPD_Init+0xec>)
 8010574:	2200      	movs	r2, #0
 8010576:	4621      	mov	r1, r4
 8010578:	f001 fe74 	bl	8012264 <HAL_GPIO_WritePin>
 801057c:	b007      	add	sp, #28
 801057e:	bdf0      	pop	{r4, r5, r6, r7, pc}
 8010580:	8892      	ldrh	r2, [r2, #4]
 8010582:	4315      	orrs	r5, r2
 8010584:	e7bd      	b.n	8010502 <APPD_Init+0x56>
 8010586:	8892      	ldrh	r2, [r2, #4]
 8010588:	4314      	orrs	r4, r2
 801058a:	e7ba      	b.n	8010502 <APPD_Init+0x56>
 801058c:	58000800 	.word	0x58000800
 8010590:	48000400 	.word	0x48000400
 8010594:	08013ec3 	.word	0x08013ec3
 8010598:	48000800 	.word	0x48000800

0801059c <APPD_EnableCPU2>:
 801059c:	b570      	push	{r4, r5, r6, lr}
 801059e:	4b0c      	ldr	r3, [pc, #48]	; (80105d0 <APPD_EnableCPU2+0x34>)
 80105a0:	b088      	sub	sp, #32
 80105a2:	aa01      	add	r2, sp, #4
 80105a4:	f103 0618 	add.w	r6, r3, #24
 80105a8:	4615      	mov	r5, r2
 80105aa:	6818      	ldr	r0, [r3, #0]
 80105ac:	6859      	ldr	r1, [r3, #4]
 80105ae:	4614      	mov	r4, r2
 80105b0:	c403      	stmia	r4!, {r0, r1}
 80105b2:	3308      	adds	r3, #8
 80105b4:	42b3      	cmp	r3, r6
 80105b6:	4622      	mov	r2, r4
 80105b8:	d1f7      	bne.n	80105aa <APPD_EnableCPU2+0xe>
 80105ba:	8819      	ldrh	r1, [r3, #0]
 80105bc:	789b      	ldrb	r3, [r3, #2]
 80105be:	8021      	strh	r1, [r4, #0]
 80105c0:	70a3      	strb	r3, [r4, #2]
 80105c2:	f003 fa23 	bl	8013a0c <TL_TRACES_Init>
 80105c6:	4628      	mov	r0, r5
 80105c8:	f002 ff47 	bl	801345a <SHCI_C2_DEBUG_Init>
 80105cc:	b008      	add	sp, #32
 80105ce:	bd70      	pop	{r4, r5, r6, pc}
 80105d0:	08013e78 	.word	0x08013e78

080105d4 <DbgOutputInit>:
 80105d4:	2000      	movs	r0, #0
 80105d6:	f000 bc99 	b.w	8010f0c <HW_UART_Init>
	...

080105dc <__NVIC_SystemReset>:
 80105dc:	f3bf 8f4f 	dsb	sy
 80105e0:	4905      	ldr	r1, [pc, #20]	; (80105f8 <__NVIC_SystemReset+0x1c>)
 80105e2:	4b06      	ldr	r3, [pc, #24]	; (80105fc <__NVIC_SystemReset+0x20>)
 80105e4:	68ca      	ldr	r2, [r1, #12]
 80105e6:	f402 62e0 	and.w	r2, r2, #1792	; 0x700
 80105ea:	4313      	orrs	r3, r2
 80105ec:	60cb      	str	r3, [r1, #12]
 80105ee:	f3bf 8f4f 	dsb	sy
 80105f2:	bf00      	nop
 80105f4:	e7fd      	b.n	80105f2 <__NVIC_SystemReset+0x16>
 80105f6:	bf00      	nop
 80105f8:	e000ed00 	.word	0xe000ed00
 80105fc:	05fa0004 	.word	0x05fa0004

08010600 <APPE_SysStatusNot>:
 8010600:	4770      	bx	lr
	...

08010604 <APPE_SysUserEvtRx>:
 8010604:	b538      	push	{r3, r4, r5, lr}
 8010606:	6845      	ldr	r5, [r0, #4]
 8010608:	f8b5 300b 	ldrh.w	r3, [r5, #11]
 801060c:	f5b3 4f12 	cmp.w	r3, #37376	; 0x9200
 8010610:	4604      	mov	r4, r0
 8010612:	d115      	bne.n	8010640 <APPE_SysUserEvtRx+0x3c>
 8010614:	2000      	movs	r0, #0
 8010616:	f001 f977 	bl	8011908 <BSP_LED_Off>
 801061a:	7b6d      	ldrb	r5, [r5, #13]
 801061c:	b98d      	cbnz	r5, 8010642 <APPE_SysUserEvtRx+0x3e>
 801061e:	4b25      	ldr	r3, [pc, #148]	; (80106b4 <APPE_SysUserEvtRx+0xb0>)
 8010620:	791a      	ldrb	r2, [r3, #4]
 8010622:	2a02      	cmp	r2, #2
 8010624:	d102      	bne.n	801062c <APPE_SysUserEvtRx+0x28>
 8010626:	711d      	strb	r5, [r3, #4]
 8010628:	f7ff ffd8 	bl	80105dc <__NVIC_SystemReset>
 801062c:	f7ff ffb6 	bl	801059c <APPD_EnableCPU2>
 8010630:	4629      	mov	r1, r5
 8010632:	2001      	movs	r0, #1
 8010634:	f003 fa8c 	bl	8013b50 <UTIL_LPM_SetOffMode>
 8010638:	f000 fe4c 	bl	80112d4 <APP_BLE_Init>
 801063c:	2301      	movs	r3, #1
 801063e:	7023      	strb	r3, [r4, #0]
 8010640:	bd38      	pop	{r3, r4, r5, pc}
 8010642:	2000      	movs	r0, #0
 8010644:	f002 fec9 	bl	80133da <SHCI_C2_FUS_GetState>
 8010648:	28ff      	cmp	r0, #255	; 0xff
 801064a:	4604      	mov	r4, r0
 801064c:	d0ec      	beq.n	8010628 <APPE_SysUserEvtRx+0x24>
 801064e:	b170      	cbz	r0, 801066e <APPE_SysUserEvtRx+0x6a>
 8010650:	2000      	movs	r0, #0
 8010652:	f001 f94b 	bl	80118ec <BSP_LED_On>
 8010656:	f242 7010 	movw	r0, #10000	; 0x2710
 801065a:	f000 fdbb 	bl	80111d4 <HAL_Delay>
 801065e:	2000      	movs	r0, #0
 8010660:	f002 febb 	bl	80133da <SHCI_C2_FUS_GetState>
 8010664:	3810      	subs	r0, #16
 8010666:	b2c0      	uxtb	r0, r0
 8010668:	281f      	cmp	r0, #31
 801066a:	d9f4      	bls.n	8010656 <APPE_SysUserEvtRx+0x52>
 801066c:	e7dc      	b.n	8010628 <APPE_SysUserEvtRx+0x24>
 801066e:	4b11      	ldr	r3, [pc, #68]	; (80106b4 <APPE_SysUserEvtRx+0xb0>)
 8010670:	791a      	ldrb	r2, [r3, #4]
 8010672:	2a02      	cmp	r2, #2
 8010674:	d10a      	bne.n	801068c <APPE_SysUserEvtRx+0x88>
 8010676:	7118      	strb	r0, [r3, #4]
 8010678:	f002 fed4 	bl	8013424 <SHCI_C2_FUS_StartWs>
 801067c:	4620      	mov	r0, r4
 801067e:	f001 f935 	bl	80118ec <BSP_LED_On>
 8010682:	2101      	movs	r1, #1
 8010684:	2000      	movs	r0, #0
 8010686:	f001 fdfb 	bl	8012280 <HAL_PWR_EnterSLEEPMode>
 801068a:	e7fa      	b.n	8010682 <APPE_SysUserEvtRx+0x7e>
 801068c:	2202      	movs	r2, #2
 801068e:	711a      	strb	r2, [r3, #4]
 8010690:	4601      	mov	r1, r0
 8010692:	f002 feb3 	bl	80133fc <SHCI_C2_FUS_FwUpgrade>
 8010696:	4620      	mov	r0, r4
 8010698:	f001 f928 	bl	80118ec <BSP_LED_On>
 801069c:	f242 7010 	movw	r0, #10000	; 0x2710
 80106a0:	f000 fd98 	bl	80111d4 <HAL_Delay>
 80106a4:	2000      	movs	r0, #0
 80106a6:	f002 fe98 	bl	80133da <SHCI_C2_FUS_GetState>
 80106aa:	3810      	subs	r0, #16
 80106ac:	b2c0      	uxtb	r0, r0
 80106ae:	281f      	cmp	r0, #31
 80106b0:	d9f4      	bls.n	801069c <APPE_SysUserEvtRx+0x98>
 80106b2:	e7b9      	b.n	8010628 <APPE_SysUserEvtRx+0x24>
 80106b4:	20001000 	.word	0x20001000

080106b8 <APPE_Init>:
 80106b8:	b510      	push	{r4, lr}
 80106ba:	f04f 42b0 	mov.w	r2, #1476395008	; 0x58000000
 80106be:	b088      	sub	sp, #32
 80106c0:	6893      	ldr	r3, [r2, #8]
 80106c2:	4c26      	ldr	r4, [pc, #152]	; (801075c <APPE_Init+0xa4>)
 80106c4:	f443 4300 	orr.w	r3, r3, #32768	; 0x8000
 80106c8:	6093      	str	r3, [r2, #8]
 80106ca:	f003 fa37 	bl	8013b3c <UTIL_LPM_Init>
 80106ce:	4a24      	ldr	r2, [pc, #144]	; (8010760 <APPE_Init+0xa8>)
 80106d0:	4924      	ldr	r1, [pc, #144]	; (8010764 <APPE_Init+0xac>)
 80106d2:	f8d2 3080 	ldr.w	r3, [r2, #128]	; 0x80
 80106d6:	f023 0307 	bic.w	r3, r3, #7
 80106da:	f043 0304 	orr.w	r3, r3, #4
 80106de:	f8c2 3080 	str.w	r3, [r2, #128]	; 0x80
 80106e2:	2000      	movs	r0, #0
 80106e4:	f000 fa14 	bl	8010b10 <HW_TS_Init>
 80106e8:	f7ff fee0 	bl	80104ac <APPD_Init>
 80106ec:	2101      	movs	r1, #1
 80106ee:	4608      	mov	r0, r1
 80106f0:	f003 fa2e 	bl	8013b50 <UTIL_LPM_SetOffMode>
 80106f4:	2000      	movs	r0, #0
 80106f6:	f001 f8d1 	bl	801189c <BSP_LED_Init>
 80106fa:	2001      	movs	r0, #1
 80106fc:	f001 f8ce 	bl	801189c <BSP_LED_Init>
 8010700:	2002      	movs	r0, #2
 8010702:	f001 f8cb 	bl	801189c <BSP_LED_Init>
 8010706:	2001      	movs	r0, #1
 8010708:	f001 f8f0 	bl	80118ec <BSP_LED_On>
 801070c:	2101      	movs	r1, #1
 801070e:	2000      	movs	r0, #0
 8010710:	f001 f908 	bl	8011924 <BSP_PB_Init>
 8010714:	f003 f88c 	bl	8013830 <TL_Init>
 8010718:	4a13      	ldr	r2, [pc, #76]	; (8010768 <APPE_Init+0xb0>)
 801071a:	2100      	movs	r1, #0
 801071c:	2002      	movs	r0, #2
 801071e:	f003 fb3d 	bl	8013d9c <UTIL_SEQ_RegTask>
 8010722:	4669      	mov	r1, sp
 8010724:	4b11      	ldr	r3, [pc, #68]	; (801076c <APPE_Init+0xb4>)
 8010726:	4812      	ldr	r0, [pc, #72]	; (8010770 <APPE_Init+0xb8>)
 8010728:	9400      	str	r4, [sp, #0]
 801072a:	9301      	str	r3, [sp, #4]
 801072c:	f002 ffc2 	bl	80136b4 <shci_init>
 8010730:	f504 7386 	add.w	r3, r4, #268	; 0x10c
 8010734:	9302      	str	r3, [sp, #8]
 8010736:	f504 7306 	add.w	r3, r4, #536	; 0x218
 801073a:	a802      	add	r0, sp, #8
 801073c:	9303      	str	r3, [sp, #12]
 801073e:	f504 7449 	add.w	r4, r4, #804	; 0x324
 8010742:	f240 533c 	movw	r3, #1340	; 0x53c
 8010746:	9305      	str	r3, [sp, #20]
 8010748:	9404      	str	r4, [sp, #16]
 801074a:	f003 f931 	bl	80139b0 <TL_MM_Init>
 801074e:	f003 f86d 	bl	801382c <TL_Enable>
 8010752:	2001      	movs	r0, #1
 8010754:	f002 fe9e 	bl	8013494 <SHCI_C2_SetFlashActivityControl>
 8010758:	b008      	add	sp, #32
 801075a:	bd10      	pop	{r4, pc}
 801075c:	200301e8 	.word	0x200301e8
 8010760:	58000400 	.word	0x58000400
 8010764:	20001258 	.word	0x20001258
 8010768:	08013709 	.word	0x08013709
 801076c:	08010601 	.word	0x08010601
 8010770:	08010605 	.word	0x08010605

08010774 <UTIL_SEQ_Idle>:
 8010774:	4770      	bx	lr
	...

08010778 <UTIL_SEQ_PostIdle>:
 8010778:	4b02      	ldr	r3, [pc, #8]	; (8010784 <UTIL_SEQ_PostIdle+0xc>)
 801077a:	f64a 22aa 	movw	r2, #43690	; 0xaaaa
 801077e:	601a      	str	r2, [r3, #0]
 8010780:	4770      	bx	lr
 8010782:	bf00      	nop
 8010784:	40003000 	.word	0x40003000

08010788 <UTIL_SEQ_EvtIdle>:
 8010788:	f04f 30ff 	mov.w	r0, #4294967295	; 0xffffffff
 801078c:	f003 ba54 	b.w	8013c38 <UTIL_SEQ_Run>

08010790 <shci_notify_asynch_evt>:
 8010790:	2100      	movs	r1, #0
 8010792:	2002      	movs	r0, #2
 8010794:	f003 b9f2 	b.w	8013b7c <UTIL_SEQ_SetTask>

08010798 <shci_cmd_resp_release>:
 8010798:	2002      	movs	r0, #2
 801079a:	f003 ba1f 	b.w	8013bdc <UTIL_SEQ_SetEvt>

0801079e <shci_cmd_resp_wait>:
 801079e:	2002      	movs	r0, #2
 80107a0:	f003 bad4 	b.w	8013d4c <UTIL_SEQ_WaitEvt>

080107a4 <FD_WaitForSemAvailable>:
 80107a4:	2000      	movs	r0, #0
 80107a6:	4770      	bx	lr

080107a8 <ProcessSingleFlashOperation>:
 80107a8:	e92d 4ff0 	stmdb	sp!, {r4, r5, r6, r7, r8, r9, sl, fp, lr}
 80107ac:	2401      	movs	r4, #1
 80107ae:	b087      	sub	sp, #28
 80107b0:	e9cd 1404 	strd	r1, r4, [sp, #16]
 80107b4:	4617      	mov	r7, r2
 80107b6:	4e24      	ldr	r6, [pc, #144]	; (8010848 <ProcessSingleFlashOperation+0xa0>)
 80107b8:	9001      	str	r0, [sp, #4]
 80107ba:	2202      	movs	r2, #2
 80107bc:	460d      	mov	r5, r1
 80107be:	4698      	mov	r8, r3
 80107c0:	f04f 0a00 	mov.w	sl, #0
 80107c4:	9203      	str	r2, [sp, #12]
 80107c6:	4b21      	ldr	r3, [pc, #132]	; (801084c <ProcessSingleFlashOperation+0xa4>)
 80107c8:	691a      	ldr	r2, [r3, #16]
 80107ca:	0312      	lsls	r2, r2, #12
 80107cc:	d4fb      	bmi.n	80107c6 <ProcessSingleFlashOperation+0x1e>
 80107ce:	f3ef 8b10 	mrs	fp, PRIMASK
 80107d2:	b672      	cpsid	i
 80107d4:	f8d6 9018 	ldr.w	r9, [r6, #24]
 80107d8:	f1b9 0f00 	cmp.w	r9, #0
 80107dc:	d10f      	bne.n	80107fe <ProcessSingleFlashOperation+0x56>
 80107de:	f8d6 309c 	ldr.w	r3, [r6, #156]	; 0x9c
 80107e2:	4a1b      	ldr	r2, [pc, #108]	; (8010850 <ProcessSingleFlashOperation+0xa8>)
 80107e4:	4293      	cmp	r3, r2
 80107e6:	d126      	bne.n	8010836 <ProcessSingleFlashOperation+0x8e>
 80107e8:	9b01      	ldr	r3, [sp, #4]
 80107ea:	b9eb      	cbnz	r3, 8010828 <ProcessSingleFlashOperation+0x80>
 80107ec:	a902      	add	r1, sp, #8
 80107ee:	a803      	add	r0, sp, #12
 80107f0:	f001 fc1a 	bl	8012028 <HAL_FLASHEx_Erase>
 80107f4:	f44f 6380 	mov.w	r3, #1024	; 0x400
 80107f8:	61f3      	str	r3, [r6, #28]
 80107fa:	f04f 0a00 	mov.w	sl, #0
 80107fe:	f38b 8810 	msr	PRIMASK, fp
 8010802:	f1b9 0f00 	cmp.w	r9, #0
 8010806:	d019      	beq.n	801083c <ProcessSingleFlashOperation+0x94>
 8010808:	2000      	movs	r0, #0
 801080a:	f7ff ffcb 	bl	80107a4 <FD_WaitForSemAvailable>
 801080e:	4604      	mov	r4, r0
 8010810:	2800      	cmp	r0, #0
 8010812:	d1d8      	bne.n	80107c6 <ProcessSingleFlashOperation+0x1e>
 8010814:	4a0d      	ldr	r2, [pc, #52]	; (801084c <ProcessSingleFlashOperation+0xa4>)
 8010816:	6913      	ldr	r3, [r2, #16]
 8010818:	035b      	lsls	r3, r3, #13
 801081a:	d4fc      	bmi.n	8010816 <ProcessSingleFlashOperation+0x6e>
 801081c:	fab4 f084 	clz	r0, r4
 8010820:	0940      	lsrs	r0, r0, #5
 8010822:	b007      	add	sp, #28
 8010824:	e8bd 8ff0 	ldmia.w	sp!, {r4, r5, r6, r7, r8, r9, sl, fp, pc}
 8010828:	463a      	mov	r2, r7
 801082a:	4643      	mov	r3, r8
 801082c:	4629      	mov	r1, r5
 801082e:	2001      	movs	r0, #1
 8010830:	f001 fbb4 	bl	8011f9c <HAL_FLASH_Program>
 8010834:	e7de      	b.n	80107f4 <ProcessSingleFlashOperation+0x4c>
 8010836:	f04f 0a01 	mov.w	sl, #1
 801083a:	e7e0      	b.n	80107fe <ProcessSingleFlashOperation+0x56>
 801083c:	f1ba 0f00 	cmp.w	sl, #0
 8010840:	d0e8      	beq.n	8010814 <ProcessSingleFlashOperation+0x6c>
 8010842:	2001      	movs	r0, #1
 8010844:	e7e1      	b.n	801080a <ProcessSingleFlashOperation+0x62>
 8010846:	bf00      	nop
 8010848:	58001400 	.word	0x58001400
 801084c:	58004000 	.word	0x58004000
 8010850:	80000400 	.word	0x80000400

08010854 <FD_EraseSingleSector>:
 8010854:	4601      	mov	r1, r0
 8010856:	2200      	movs	r2, #0
 8010858:	2300      	movs	r3, #0
 801085a:	2000      	movs	r0, #0
 801085c:	f7ff bfa4 	b.w	80107a8 <ProcessSingleFlashOperation>

08010860 <FD_EraseSectors>:
 8010860:	b5f8      	push	{r3, r4, r5, r6, r7, lr}
 8010862:	460d      	mov	r5, r1
 8010864:	4b13      	ldr	r3, [pc, #76]	; (80108b4 <FD_EraseSectors+0x54>)
 8010866:	4914      	ldr	r1, [pc, #80]	; (80108b8 <FD_EraseSectors+0x58>)
 8010868:	4607      	mov	r7, r0
 801086a:	f8d1 2088 	ldr.w	r2, [r1, #136]	; 0x88
 801086e:	429a      	cmp	r2, r3
 8010870:	d1fb      	bne.n	801086a <FD_EraseSectors+0xa>
 8010872:	f001 fb45 	bl	8011f00 <HAL_FLASH_Unlock>
 8010876:	2001      	movs	r0, #1
 8010878:	f002 fdfd 	bl	8013476 <SHCI_C2_FLASH_EraseActivity>
 801087c:	2400      	movs	r4, #0
 801087e:	4626      	mov	r6, r4
 8010880:	42ae      	cmp	r6, r5
 8010882:	d009      	beq.n	8010898 <FD_EraseSectors+0x38>
 8010884:	b114      	cbz	r4, 801088c <FD_EraseSectors+0x2c>
 8010886:	1c68      	adds	r0, r5, #1
 8010888:	1b80      	subs	r0, r0, r6
 801088a:	bdf8      	pop	{r3, r4, r5, r6, r7, pc}
 801088c:	19f0      	adds	r0, r6, r7
 801088e:	f7ff ffe1 	bl	8010854 <FD_EraseSingleSector>
 8010892:	3601      	adds	r6, #1
 8010894:	4604      	mov	r4, r0
 8010896:	e7f3      	b.n	8010880 <FD_EraseSectors+0x20>
 8010898:	2c00      	cmp	r4, #0
 801089a:	d1f4      	bne.n	8010886 <FD_EraseSectors+0x26>
 801089c:	4620      	mov	r0, r4
 801089e:	f002 fdea 	bl	8013476 <SHCI_C2_FLASH_EraseActivity>
 80108a2:	f001 fb3f 	bl	8011f24 <HAL_FLASH_Lock>
 80108a6:	4b04      	ldr	r3, [pc, #16]	; (80108b8 <FD_EraseSectors+0x58>)
 80108a8:	f44f 6280 	mov.w	r2, #1024	; 0x400
 80108ac:	609a      	str	r2, [r3, #8]
 80108ae:	4620      	mov	r0, r4
 80108b0:	e7eb      	b.n	801088a <FD_EraseSectors+0x2a>
 80108b2:	bf00      	nop
 80108b4:	80000400 	.word	0x80000400
 80108b8:	58001400 	.word	0x58001400

080108bc <FD_WriteSingleData>:
 80108bc:	4601      	mov	r1, r0
 80108be:	2001      	movs	r0, #1
 80108c0:	f7ff bf72 	b.w	80107a8 <ProcessSingleFlashOperation>

080108c4 <FD_WriteData>:
 80108c4:	e92d 41f0 	stmdb	sp!, {r4, r5, r6, r7, r8, lr}
 80108c8:	4b13      	ldr	r3, [pc, #76]	; (8010918 <FD_WriteData+0x54>)
 80108ca:	460d      	mov	r5, r1
 80108cc:	4913      	ldr	r1, [pc, #76]	; (801091c <FD_WriteData+0x58>)
 80108ce:	4680      	mov	r8, r0
 80108d0:	4617      	mov	r7, r2
 80108d2:	f8d1 2088 	ldr.w	r2, [r1, #136]	; 0x88
 80108d6:	429a      	cmp	r2, r3
 80108d8:	d1fb      	bne.n	80108d2 <FD_WriteData+0xe>
 80108da:	f001 fb11 	bl	8011f00 <HAL_FLASH_Unlock>
 80108de:	2400      	movs	r4, #0
 80108e0:	3d08      	subs	r5, #8
 80108e2:	4626      	mov	r6, r4
 80108e4:	42be      	cmp	r6, r7
 80108e6:	d00d      	beq.n	8010904 <FD_WriteData+0x40>
 80108e8:	b11c      	cbz	r4, 80108f2 <FD_WriteData+0x2e>
 80108ea:	1c7a      	adds	r2, r7, #1
 80108ec:	1b90      	subs	r0, r2, r6
 80108ee:	e8bd 81f0 	ldmia.w	sp!, {r4, r5, r6, r7, r8, pc}
 80108f2:	eb08 00c6 	add.w	r0, r8, r6, lsl #3
 80108f6:	e9f5 2302 	ldrd	r2, r3, [r5, #8]!
 80108fa:	f7ff ffdf 	bl	80108bc <FD_WriteSingleData>
 80108fe:	3601      	adds	r6, #1
 8010900:	4604      	mov	r4, r0
 8010902:	e7ef      	b.n	80108e4 <FD_WriteData+0x20>
 8010904:	2c00      	cmp	r4, #0
 8010906:	d1f0      	bne.n	80108ea <FD_WriteData+0x26>
 8010908:	f001 fb0c 	bl	8011f24 <HAL_FLASH_Lock>
 801090c:	4b03      	ldr	r3, [pc, #12]	; (801091c <FD_WriteData+0x58>)
 801090e:	f44f 6280 	mov.w	r2, #1024	; 0x400
 8010912:	609a      	str	r2, [r3, #8]
 8010914:	4620      	mov	r0, r4
 8010916:	e7ea      	b.n	80108ee <FD_WriteData+0x2a>
 8010918:	80000400 	.word	0x80000400
 801091c:	58001400 	.word	0x58001400

08010920 <ReadRtcSsrValue>:
 8010920:	4a05      	ldr	r2, [pc, #20]	; (8010938 <ReadRtcSsrValue+0x18>)
 8010922:	6a90      	ldr	r0, [r2, #40]	; 0x28
 8010924:	6a93      	ldr	r3, [r2, #40]	; 0x28
 8010926:	b280      	uxth	r0, r0
 8010928:	b29b      	uxth	r3, r3
 801092a:	4298      	cmp	r0, r3
 801092c:	d100      	bne.n	8010930 <ReadRtcSsrValue+0x10>
 801092e:	4770      	bx	lr
 8010930:	6a91      	ldr	r1, [r2, #40]	; 0x28
 8010932:	4618      	mov	r0, r3
 8010934:	b28b      	uxth	r3, r1
 8010936:	e7f8      	b.n	801092a <ReadRtcSsrValue+0xa>
 8010938:	40002800 	.word	0x40002800

0801093c <UnlinkTimer>:
 801093c:	b5f0      	push	{r4, r5, r6, r7, lr}
 801093e:	4b19      	ldr	r3, [pc, #100]	; (80109a4 <UnlinkTimer+0x68>)
 8010940:	781a      	ldrb	r2, [r3, #0]
 8010942:	4282      	cmp	r2, r0
 8010944:	f04f 0218 	mov.w	r2, #24
 8010948:	d115      	bne.n	8010976 <UnlinkTimer+0x3a>
 801094a:	781c      	ldrb	r4, [r3, #0]
 801094c:	fb02 3200 	mla	r2, r2, r0, r3
 8010950:	b2e4      	uxtb	r4, r4
 8010952:	705c      	strb	r4, [r3, #1]
 8010954:	7e52      	ldrb	r2, [r2, #25]
 8010956:	b2d2      	uxtb	r2, r2
 8010958:	701a      	strb	r2, [r3, #0]
 801095a:	2218      	movs	r2, #24
 801095c:	fb02 3000 	mla	r0, r2, r0, r3
 8010960:	2201      	movs	r2, #1
 8010962:	7402      	strb	r2, [r0, #16]
 8010964:	781a      	ldrb	r2, [r3, #0]
 8010966:	2a06      	cmp	r2, #6
 8010968:	d104      	bne.n	8010974 <UnlinkTimer+0x38>
 801096a:	b919      	cbnz	r1, 8010974 <UnlinkTimer+0x38>
 801096c:	f04f 32ff 	mov.w	r2, #4294967295	; 0xffffffff
 8010970:	f8c3 2094 	str.w	r2, [r3, #148]	; 0x94
 8010974:	bdf0      	pop	{r4, r5, r6, r7, pc}
 8010976:	fb02 3400 	mla	r4, r2, r0, r3
 801097a:	7e26      	ldrb	r6, [r4, #24]
 801097c:	f894 c019 	ldrb.w	ip, [r4, #25]
 8010980:	7e67      	ldrb	r7, [r4, #25]
 8010982:	fb02 3606 	mla	r6, r2, r6, r3
 8010986:	b2ff      	uxtb	r7, r7
 8010988:	f1bc 0f06 	cmp.w	ip, #6
 801098c:	7677      	strb	r7, [r6, #25]
 801098e:	bf18      	it	ne
 8010990:	7e24      	ldrbne	r4, [r4, #24]
 8010992:	fa5f f58c 	uxtb.w	r5, ip
 8010996:	bf1e      	ittt	ne
 8010998:	fb02 3205 	mlane	r2, r2, r5, r3
 801099c:	b2e4      	uxtbne	r4, r4
 801099e:	7614      	strbne	r4, [r2, #24]
 80109a0:	e7db      	b.n	801095a <UnlinkTimer+0x1e>
 80109a2:	bf00      	nop
 80109a4:	2000104c 	.word	0x2000104c

080109a8 <ReturnTimeElapsed>:
 80109a8:	b510      	push	{r4, lr}
 80109aa:	4c0f      	ldr	r4, [pc, #60]	; (80109e8 <ReturnTimeElapsed+0x40>)
 80109ac:	f8d4 3094 	ldr.w	r3, [r4, #148]	; 0x94
 80109b0:	3301      	adds	r3, #1
 80109b2:	d016      	beq.n	80109e2 <ReturnTimeElapsed+0x3a>
 80109b4:	f7ff ffb4 	bl	8010920 <ReadRtcSsrValue>
 80109b8:	f8d4 3094 	ldr.w	r3, [r4, #148]	; 0x94
 80109bc:	4283      	cmp	r3, r0
 80109be:	bf3d      	ittte	cc
 80109c0:	4b0a      	ldrcc	r3, [pc, #40]	; (80109ec <ReturnTimeElapsed+0x44>)
 80109c2:	f8d4 2094 	ldrcc.w	r2, [r4, #148]	; 0x94
 80109c6:	881b      	ldrhcc	r3, [r3, #0]
 80109c8:	f8d4 3094 	ldrcs.w	r3, [r4, #148]	; 0x94
 80109cc:	bf38      	it	cc
 80109ce:	189b      	addcc	r3, r3, r2
 80109d0:	1a18      	subs	r0, r3, r0
 80109d2:	4b07      	ldr	r3, [pc, #28]	; (80109f0 <ReturnTimeElapsed+0x48>)
 80109d4:	781b      	ldrb	r3, [r3, #0]
 80109d6:	4358      	muls	r0, r3
 80109d8:	4b06      	ldr	r3, [pc, #24]	; (80109f4 <ReturnTimeElapsed+0x4c>)
 80109da:	781b      	ldrb	r3, [r3, #0]
 80109dc:	40d8      	lsrs	r0, r3
 80109de:	b280      	uxth	r0, r0
 80109e0:	bd10      	pop	{r4, pc}
 80109e2:	2000      	movs	r0, #0
 80109e4:	e7fb      	b.n	80109de <ReturnTimeElapsed+0x36>
 80109e6:	bf00      	nop
 80109e8:	2000104c 	.word	0x2000104c
 80109ec:	20001160 	.word	0x20001160
 80109f0:	2000115c 	.word	0x2000115c
 80109f4:	20001162 	.word	0x20001162

080109f8 <RescheduleTimerList>:
 80109f8:	e92d 41f0 	stmdb	sp!, {r4, r5, r6, r7, r8, lr}
 80109fc:	4c3e      	ldr	r4, [pc, #248]	; (8010af8 <RescheduleTimerList+0x100>)
 80109fe:	4b3f      	ldr	r3, [pc, #252]	; (8010afc <RescheduleTimerList+0x104>)
 8010a00:	f8d4 8000 	ldr.w	r8, [r4]
 8010a04:	689a      	ldr	r2, [r3, #8]
 8010a06:	f8d8 3000 	ldr.w	r3, [r8]
 8010a0a:	f412 6f80 	tst.w	r2, #1024	; 0x400
 8010a0e:	d003      	beq.n	8010a18 <RescheduleTimerList+0x20>
 8010a10:	68da      	ldr	r2, [r3, #12]
 8010a12:	f012 0f04 	tst.w	r2, #4
 8010a16:	e7fa      	b.n	8010a0e <RescheduleTimerList+0x16>
 8010a18:	689a      	ldr	r2, [r3, #8]
 8010a1a:	4e39      	ldr	r6, [pc, #228]	; (8010b00 <RescheduleTimerList+0x108>)
 8010a1c:	f422 6280 	bic.w	r2, r2, #1024	; 0x400
 8010a20:	609a      	str	r2, [r3, #8]
 8010a22:	7833      	ldrb	r3, [r6, #0]
 8010a24:	2218      	movs	r2, #24
 8010a26:	b2df      	uxtb	r7, r3
 8010a28:	fb02 6303 	mla	r3, r2, r3, r6
 8010a2c:	68dd      	ldr	r5, [r3, #12]
 8010a2e:	f7ff ffbb 	bl	80109a8 <ReturnTimeElapsed>
 8010a32:	42a8      	cmp	r0, r5
 8010a34:	d907      	bls.n	8010a46 <RescheduleTimerList+0x4e>
 8010a36:	2301      	movs	r3, #1
 8010a38:	f886 3098 	strb.w	r3, [r6, #152]	; 0x98
 8010a3c:	2300      	movs	r3, #0
 8010a3e:	2518      	movs	r5, #24
 8010a40:	f04f 0c00 	mov.w	ip, #0
 8010a44:	e01d      	b.n	8010a82 <RescheduleTimerList+0x8a>
 8010a46:	4a2f      	ldr	r2, [pc, #188]	; (8010b04 <RescheduleTimerList+0x10c>)
 8010a48:	8813      	ldrh	r3, [r2, #0]
 8010a4a:	fa10 f383 	uxtah	r3, r0, r3
 8010a4e:	42ab      	cmp	r3, r5
 8010a50:	bf35      	itete	cc
 8010a52:	8813      	ldrhcc	r3, [r2, #0]
 8010a54:	1a2b      	subcs	r3, r5, r0
 8010a56:	2200      	movcc	r2, #0
 8010a58:	2201      	movcs	r2, #1
 8010a5a:	bf34      	ite	cc
 8010a5c:	b29b      	uxthcc	r3, r3
 8010a5e:	b29b      	uxthcs	r3, r3
 8010a60:	f886 2098 	strb.w	r2, [r6, #152]	; 0x98
 8010a64:	e7eb      	b.n	8010a3e <RescheduleTimerList+0x46>
 8010a66:	fb05 6207 	mla	r2, r5, r7, r6
 8010a6a:	fb05 6707 	mla	r7, r5, r7, r6
 8010a6e:	68d1      	ldr	r1, [r2, #12]
 8010a70:	4288      	cmp	r0, r1
 8010a72:	bf97      	itett	ls
 8010a74:	68d1      	ldrls	r1, [r2, #12]
 8010a76:	f8c2 c00c 	strhi.w	ip, [r2, #12]
 8010a7a:	1a09      	subls	r1, r1, r0
 8010a7c:	60d1      	strls	r1, [r2, #12]
 8010a7e:	7e7f      	ldrb	r7, [r7, #25]
 8010a80:	b2ff      	uxtb	r7, r7
 8010a82:	2f06      	cmp	r7, #6
 8010a84:	d1ef      	bne.n	8010a66 <RescheduleTimerList+0x6e>
 8010a86:	b943      	cbnz	r3, 8010a9a <RescheduleTimerList+0xa2>
 8010a88:	f7ff ff4a 	bl	8010920 <ReadRtcSsrValue>
 8010a8c:	f8c6 0094 	str.w	r0, [r6, #148]	; 0x94
 8010a90:	e8bd 41f0 	ldmia.w	sp!, {r4, r5, r6, r7, r8, lr}
 8010a94:	2003      	movs	r0, #3
 8010a96:	f001 b8c9 	b.w	8011c2c <HAL_NVIC_SetPendingIRQ>
 8010a9a:	2b01      	cmp	r3, #1
 8010a9c:	d803      	bhi.n	8010aa6 <RescheduleTimerList+0xae>
 8010a9e:	4a1a      	ldr	r2, [pc, #104]	; (8010b08 <RescheduleTimerList+0x110>)
 8010aa0:	7812      	ldrb	r2, [r2, #0]
 8010aa2:	2a01      	cmp	r2, #1
 8010aa4:	d026      	beq.n	8010af4 <RescheduleTimerList+0xfc>
 8010aa6:	3b01      	subs	r3, #1
 8010aa8:	b29d      	uxth	r5, r3
 8010aaa:	f8d8 3000 	ldr.w	r3, [r8]
 8010aae:	68da      	ldr	r2, [r3, #12]
 8010ab0:	0752      	lsls	r2, r2, #29
 8010ab2:	d5fc      	bpl.n	8010aae <RescheduleTimerList+0xb6>
 8010ab4:	68d9      	ldr	r1, [r3, #12]
 8010ab6:	b2c9      	uxtb	r1, r1
 8010ab8:	f461 6190 	orn	r1, r1, #1152	; 0x480
 8010abc:	60d9      	str	r1, [r3, #12]
 8010abe:	4b13      	ldr	r3, [pc, #76]	; (8010b0c <RescheduleTimerList+0x114>)
 8010ac0:	f44f 2200 	mov.w	r2, #524288	; 0x80000
 8010ac4:	60da      	str	r2, [r3, #12]
 8010ac6:	2003      	movs	r0, #3
 8010ac8:	f001 f8c0 	bl	8011c4c <HAL_NVIC_ClearPendingIRQ>
 8010acc:	4b0b      	ldr	r3, [pc, #44]	; (8010afc <RescheduleTimerList+0x104>)
 8010ace:	695a      	ldr	r2, [r3, #20]
 8010ad0:	0c12      	lsrs	r2, r2, #16
 8010ad2:	0412      	lsls	r2, r2, #16
 8010ad4:	432a      	orrs	r2, r5
 8010ad6:	615a      	str	r2, [r3, #20]
 8010ad8:	f7ff ff22 	bl	8010920 <ReadRtcSsrValue>
 8010adc:	6823      	ldr	r3, [r4, #0]
 8010ade:	f8c6 0094 	str.w	r0, [r6, #148]	; 0x94
 8010ae2:	681a      	ldr	r2, [r3, #0]
 8010ae4:	6893      	ldr	r3, [r2, #8]
 8010ae6:	f443 6380 	orr.w	r3, r3, #1024	; 0x400
 8010aea:	6093      	str	r3, [r2, #8]
 8010aec:	f3af 8000 	nop.w
 8010af0:	e8bd 81f0 	ldmia.w	sp!, {r4, r5, r6, r7, r8, pc}
 8010af4:	4615      	mov	r5, r2
 8010af6:	e7d8      	b.n	8010aaa <RescheduleTimerList+0xb2>
 8010af8:	20001164 	.word	0x20001164
 8010afc:	40002800 	.word	0x40002800
 8010b00:	2000104c 	.word	0x2000104c
 8010b04:	2000115e 	.word	0x2000115e
 8010b08:	20001162 	.word	0x20001162
 8010b0c:	58000800 	.word	0x58000800

08010b10 <HW_TS_Init>:
 8010b10:	b570      	push	{r4, r5, r6, lr}
 8010b12:	680c      	ldr	r4, [r1, #0]
 8010b14:	4e40      	ldr	r6, [pc, #256]	; (8010c18 <HW_TS_Init+0x108>)
 8010b16:	4d41      	ldr	r5, [pc, #260]	; (8010c1c <HW_TS_Init+0x10c>)
 8010b18:	23ca      	movs	r3, #202	; 0xca
 8010b1a:	6263      	str	r3, [r4, #36]	; 0x24
 8010b1c:	2353      	movs	r3, #83	; 0x53
 8010b1e:	6263      	str	r3, [r4, #36]	; 0x24
 8010b20:	68b3      	ldr	r3, [r6, #8]
 8010b22:	6029      	str	r1, [r5, #0]
 8010b24:	f043 0320 	orr.w	r3, r3, #32
 8010b28:	60b3      	str	r3, [r6, #8]
 8010b2a:	68b3      	ldr	r3, [r6, #8]
 8010b2c:	f003 0307 	and.w	r3, r3, #7
 8010b30:	f1c3 0304 	rsb	r3, r3, #4
 8010b34:	b2d9      	uxtb	r1, r3
 8010b36:	4b3a      	ldr	r3, [pc, #232]	; (8010c20 <HW_TS_Init+0x110>)
 8010b38:	7019      	strb	r1, [r3, #0]
 8010b3a:	6932      	ldr	r2, [r6, #16]
 8010b3c:	f44f 03fe 	mov.w	r3, #8323072	; 0x7f0000
 8010b40:	fa93 f3a3 	rbit	r3, r3
 8010b44:	fab3 f383 	clz	r3, r3
 8010b48:	f402 02fe 	and.w	r2, r2, #8323072	; 0x7f0000
 8010b4c:	40da      	lsrs	r2, r3
 8010b4e:	3201      	adds	r2, #1
 8010b50:	4b34      	ldr	r3, [pc, #208]	; (8010c24 <HW_TS_Init+0x114>)
 8010b52:	b2d2      	uxtb	r2, r2
 8010b54:	701a      	strb	r2, [r3, #0]
 8010b56:	6933      	ldr	r3, [r6, #16]
 8010b58:	4e33      	ldr	r6, [pc, #204]	; (8010c28 <HW_TS_Init+0x118>)
 8010b5a:	f3c3 030e 	ubfx	r3, r3, #0, #15
 8010b5e:	3301      	adds	r3, #1
 8010b60:	8033      	strh	r3, [r6, #0]
 8010b62:	3b01      	subs	r3, #1
 8010b64:	4353      	muls	r3, r2
 8010b66:	f5a3 73a0 	sub.w	r3, r3, #320	; 0x140
 8010b6a:	40cb      	lsrs	r3, r1
 8010b6c:	f64f 72fe 	movw	r2, #65534	; 0xfffe
 8010b70:	4293      	cmp	r3, r2
 8010b72:	4a2e      	ldr	r2, [pc, #184]	; (8010c2c <HW_TS_Init+0x11c>)
 8010b74:	bf8c      	ite	hi
 8010b76:	f64f 73ff 	movwhi	r3, #65535	; 0xffff
 8010b7a:	b29b      	uxthls	r3, r3
 8010b7c:	8013      	strh	r3, [r2, #0]
 8010b7e:	4a2c      	ldr	r2, [pc, #176]	; (8010c30 <HW_TS_Init+0x120>)
 8010b80:	6813      	ldr	r3, [r2, #0]
 8010b82:	f443 2300 	orr.w	r3, r3, #524288	; 0x80000
 8010b86:	6013      	str	r3, [r2, #0]
 8010b88:	f8d2 3080 	ldr.w	r3, [r2, #128]	; 0x80
 8010b8c:	f443 2300 	orr.w	r3, r3, #524288	; 0x80000
 8010b90:	f8c2 3080 	str.w	r3, [r2, #128]	; 0x80
 8010b94:	2800      	cmp	r0, #0
 8010b96:	d137      	bne.n	8010c08 <HW_TS_Init+0xf8>
 8010b98:	4b26      	ldr	r3, [pc, #152]	; (8010c34 <HW_TS_Init+0x124>)
 8010b9a:	2101      	movs	r1, #1
 8010b9c:	f883 1098 	strb.w	r1, [r3, #152]	; 0x98
 8010ba0:	f04f 31ff 	mov.w	r1, #4294967295	; 0xffffffff
 8010ba4:	f8c3 1094 	str.w	r1, [r3, #148]	; 0x94
 8010ba8:	2106      	movs	r1, #6
 8010baa:	7418      	strb	r0, [r3, #16]
 8010bac:	f883 0028 	strb.w	r0, [r3, #40]	; 0x28
 8010bb0:	f883 0040 	strb.w	r0, [r3, #64]	; 0x40
 8010bb4:	f883 0058 	strb.w	r0, [r3, #88]	; 0x58
 8010bb8:	f883 0070 	strb.w	r0, [r3, #112]	; 0x70
 8010bbc:	f883 0088 	strb.w	r0, [r3, #136]	; 0x88
 8010bc0:	7019      	strb	r1, [r3, #0]
 8010bc2:	68a3      	ldr	r3, [r4, #8]
 8010bc4:	f423 6380 	bic.w	r3, r3, #1024	; 0x400
 8010bc8:	60a3      	str	r3, [r4, #8]
 8010bca:	68e3      	ldr	r3, [r4, #12]
 8010bcc:	b2db      	uxtb	r3, r3
 8010bce:	f463 6390 	orn	r3, r3, #1152	; 0x480
 8010bd2:	60e3      	str	r3, [r4, #12]
 8010bd4:	f44f 2300 	mov.w	r3, #524288	; 0x80000
 8010bd8:	60d3      	str	r3, [r2, #12]
 8010bda:	2003      	movs	r0, #3
 8010bdc:	f001 f836 	bl	8011c4c <HAL_NVIC_ClearPendingIRQ>
 8010be0:	682b      	ldr	r3, [r5, #0]
 8010be2:	681a      	ldr	r2, [r3, #0]
 8010be4:	6893      	ldr	r3, [r2, #8]
 8010be6:	f443 4380 	orr.w	r3, r3, #16384	; 0x4000
 8010bea:	6093      	str	r3, [r2, #8]
 8010bec:	682b      	ldr	r3, [r5, #0]
 8010bee:	681b      	ldr	r3, [r3, #0]
 8010bf0:	22ff      	movs	r2, #255	; 0xff
 8010bf2:	2103      	movs	r1, #3
 8010bf4:	625a      	str	r2, [r3, #36]	; 0x24
 8010bf6:	4608      	mov	r0, r1
 8010bf8:	2200      	movs	r2, #0
 8010bfa:	f000 ffad 	bl	8011b58 <HAL_NVIC_SetPriority>
 8010bfe:	e8bd 4070 	ldmia.w	sp!, {r4, r5, r6, lr}
 8010c02:	2003      	movs	r0, #3
 8010c04:	f000 bfda 	b.w	8011bbc <HAL_NVIC_EnableIRQ>
 8010c08:	68e3      	ldr	r3, [r4, #12]
 8010c0a:	055b      	lsls	r3, r3, #21
 8010c0c:	d5ee      	bpl.n	8010bec <HW_TS_Init+0xdc>
 8010c0e:	2003      	movs	r0, #3
 8010c10:	f001 f80c 	bl	8011c2c <HAL_NVIC_SetPendingIRQ>
 8010c14:	e7ea      	b.n	8010bec <HW_TS_Init+0xdc>
 8010c16:	bf00      	nop
 8010c18:	40002800 	.word	0x40002800
 8010c1c:	20001164 	.word	0x20001164
 8010c20:	20001162 	.word	0x20001162
 8010c24:	2000115c 	.word	0x2000115c
 8010c28:	20001160 	.word	0x20001160
 8010c2c:	2000115e 	.word	0x2000115e
 8010c30:	58000800 	.word	0x58000800
 8010c34:	2000104c 	.word	0x2000104c

08010c38 <HW_TS_Stop>:
 8010c38:	e92d 41f0 	stmdb	sp!, {r4, r5, r6, r7, r8, lr}
 8010c3c:	4605      	mov	r5, r0
 8010c3e:	f3ef 8710 	mrs	r7, PRIMASK
 8010c42:	b672      	cpsid	i
 8010c44:	4c24      	ldr	r4, [pc, #144]	; (8010cd8 <HW_TS_Stop+0xa0>)
 8010c46:	4e25      	ldr	r6, [pc, #148]	; (8010cdc <HW_TS_Stop+0xa4>)
 8010c48:	2003      	movs	r0, #3
 8010c4a:	f000 ffc5 	bl	8011bd8 <HAL_NVIC_DisableIRQ>
 8010c4e:	f8d4 8000 	ldr.w	r8, [r4]
 8010c52:	f8d8 3000 	ldr.w	r3, [r8]
 8010c56:	22ca      	movs	r2, #202	; 0xca
 8010c58:	625a      	str	r2, [r3, #36]	; 0x24
 8010c5a:	2253      	movs	r2, #83	; 0x53
 8010c5c:	625a      	str	r2, [r3, #36]	; 0x24
 8010c5e:	2318      	movs	r3, #24
 8010c60:	fb03 6305 	mla	r3, r3, r5, r6
 8010c64:	7c1b      	ldrb	r3, [r3, #16]
 8010c66:	2b02      	cmp	r3, #2
 8010c68:	d125      	bne.n	8010cb6 <HW_TS_Stop+0x7e>
 8010c6a:	2100      	movs	r1, #0
 8010c6c:	4628      	mov	r0, r5
 8010c6e:	f7ff fe65 	bl	801093c <UnlinkTimer>
 8010c72:	7833      	ldrb	r3, [r6, #0]
 8010c74:	2b06      	cmp	r3, #6
 8010c76:	b2da      	uxtb	r2, r3
 8010c78:	d128      	bne.n	8010ccc <HW_TS_Stop+0x94>
 8010c7a:	4b19      	ldr	r3, [pc, #100]	; (8010ce0 <HW_TS_Stop+0xa8>)
 8010c7c:	689a      	ldr	r2, [r3, #8]
 8010c7e:	f8d8 3000 	ldr.w	r3, [r8]
 8010c82:	f412 6f80 	tst.w	r2, #1024	; 0x400
 8010c86:	d003      	beq.n	8010c90 <HW_TS_Stop+0x58>
 8010c88:	68da      	ldr	r2, [r3, #12]
 8010c8a:	f012 0f04 	tst.w	r2, #4
 8010c8e:	e7fa      	b.n	8010c86 <HW_TS_Stop+0x4e>
 8010c90:	689a      	ldr	r2, [r3, #8]
 8010c92:	f422 6280 	bic.w	r2, r2, #1024	; 0x400
 8010c96:	609a      	str	r2, [r3, #8]
 8010c98:	68da      	ldr	r2, [r3, #12]
 8010c9a:	0752      	lsls	r2, r2, #29
 8010c9c:	d5fc      	bpl.n	8010c98 <HW_TS_Stop+0x60>
 8010c9e:	68da      	ldr	r2, [r3, #12]
 8010ca0:	b2d2      	uxtb	r2, r2
 8010ca2:	f462 6290 	orn	r2, r2, #1152	; 0x480
 8010ca6:	60da      	str	r2, [r3, #12]
 8010ca8:	4b0e      	ldr	r3, [pc, #56]	; (8010ce4 <HW_TS_Stop+0xac>)
 8010caa:	f44f 2200 	mov.w	r2, #524288	; 0x80000
 8010cae:	60da      	str	r2, [r3, #12]
 8010cb0:	2003      	movs	r0, #3
 8010cb2:	f000 ffcb 	bl	8011c4c <HAL_NVIC_ClearPendingIRQ>
 8010cb6:	6823      	ldr	r3, [r4, #0]
 8010cb8:	681b      	ldr	r3, [r3, #0]
 8010cba:	22ff      	movs	r2, #255	; 0xff
 8010cbc:	625a      	str	r2, [r3, #36]	; 0x24
 8010cbe:	2003      	movs	r0, #3
 8010cc0:	f000 ff7c 	bl	8011bbc <HAL_NVIC_EnableIRQ>
 8010cc4:	f387 8810 	msr	PRIMASK, r7
 8010cc8:	e8bd 81f0 	ldmia.w	sp!, {r4, r5, r6, r7, r8, pc}
 8010ccc:	7873      	ldrb	r3, [r6, #1]
 8010cce:	4293      	cmp	r3, r2
 8010cd0:	d0f1      	beq.n	8010cb6 <HW_TS_Stop+0x7e>
 8010cd2:	f7ff fe91 	bl	80109f8 <RescheduleTimerList>
 8010cd6:	e7ee      	b.n	8010cb6 <HW_TS_Stop+0x7e>
 8010cd8:	20001164 	.word	0x20001164
 8010cdc:	2000104c 	.word	0x2000104c
 8010ce0:	40002800 	.word	0x40002800
 8010ce4:	58000800 	.word	0x58000800

08010ce8 <HW_TS_Start>:
 8010ce8:	e92d 43f8 	stmdb	sp!, {r3, r4, r5, r6, r7, r8, r9, lr}
 8010cec:	4c4e      	ldr	r4, [pc, #312]	; (8010e28 <HW_TS_Start+0x140>)
 8010cee:	2318      	movs	r3, #24
 8010cf0:	fb03 4300 	mla	r3, r3, r0, r4
 8010cf4:	4605      	mov	r5, r0
 8010cf6:	7c1b      	ldrb	r3, [r3, #16]
 8010cf8:	2b02      	cmp	r3, #2
 8010cfa:	460e      	mov	r6, r1
 8010cfc:	d101      	bne.n	8010d02 <HW_TS_Start+0x1a>
 8010cfe:	f7ff ff9b 	bl	8010c38 <HW_TS_Stop>
 8010d02:	f3ef 8710 	mrs	r7, PRIMASK
 8010d06:	b672      	cpsid	i
 8010d08:	2003      	movs	r0, #3
 8010d0a:	f000 ff65 	bl	8011bd8 <HAL_NVIC_DisableIRQ>
 8010d0e:	4b47      	ldr	r3, [pc, #284]	; (8010e2c <HW_TS_Start+0x144>)
 8010d10:	681a      	ldr	r2, [r3, #0]
 8010d12:	6812      	ldr	r2, [r2, #0]
 8010d14:	21ca      	movs	r1, #202	; 0xca
 8010d16:	f04f 0918 	mov.w	r9, #24
 8010d1a:	6251      	str	r1, [r2, #36]	; 0x24
 8010d1c:	fb09 4805 	mla	r8, r9, r5, r4
 8010d20:	2153      	movs	r1, #83	; 0x53
 8010d22:	6251      	str	r1, [r2, #36]	; 0x24
 8010d24:	2202      	movs	r2, #2
 8010d26:	f888 2010 	strb.w	r2, [r8, #16]
 8010d2a:	f8c8 600c 	str.w	r6, [r8, #12]
 8010d2e:	f8c8 6008 	str.w	r6, [r8, #8]
 8010d32:	7822      	ldrb	r2, [r4, #0]
 8010d34:	2a06      	cmp	r2, #6
 8010d36:	b2d1      	uxtb	r1, r2
 8010d38:	461e      	mov	r6, r3
 8010d3a:	d11b      	bne.n	8010d74 <HW_TS_Start+0x8c>
 8010d3c:	7823      	ldrb	r3, [r4, #0]
 8010d3e:	b2db      	uxtb	r3, r3
 8010d40:	7063      	strb	r3, [r4, #1]
 8010d42:	f04f 33ff 	mov.w	r3, #4294967295	; 0xffffffff
 8010d46:	7025      	strb	r5, [r4, #0]
 8010d48:	2000      	movs	r0, #0
 8010d4a:	f888 1019 	strb.w	r1, [r8, #25]
 8010d4e:	f8c4 3094 	str.w	r3, [r4, #148]	; 0x94
 8010d52:	7823      	ldrb	r3, [r4, #0]
 8010d54:	7862      	ldrb	r2, [r4, #1]
 8010d56:	429a      	cmp	r2, r3
 8010d58:	d05e      	beq.n	8010e18 <HW_TS_Start+0x130>
 8010d5a:	f7ff fe4d 	bl	80109f8 <RescheduleTimerList>
 8010d5e:	6833      	ldr	r3, [r6, #0]
 8010d60:	681b      	ldr	r3, [r3, #0]
 8010d62:	22ff      	movs	r2, #255	; 0xff
 8010d64:	625a      	str	r2, [r3, #36]	; 0x24
 8010d66:	2003      	movs	r0, #3
 8010d68:	f000 ff28 	bl	8011bbc <HAL_NVIC_EnableIRQ>
 8010d6c:	f387 8810 	msr	PRIMASK, r7
 8010d70:	e8bd 83f8 	ldmia.w	sp!, {r3, r4, r5, r6, r7, r8, r9, pc}
 8010d74:	f7ff fe18 	bl	80109a8 <ReturnTimeElapsed>
 8010d78:	f8d8 300c 	ldr.w	r3, [r8, #12]
 8010d7c:	4403      	add	r3, r0
 8010d7e:	f8c8 300c 	str.w	r3, [r8, #12]
 8010d82:	f8d8 100c 	ldr.w	r1, [r8, #12]
 8010d86:	7823      	ldrb	r3, [r4, #0]
 8010d88:	fb09 4303 	mla	r3, r9, r3, r4
 8010d8c:	68db      	ldr	r3, [r3, #12]
 8010d8e:	4299      	cmp	r1, r3
 8010d90:	d325      	bcc.n	8010dde <HW_TS_Start+0xf6>
 8010d92:	7822      	ldrb	r2, [r4, #0]
 8010d94:	b2d3      	uxtb	r3, r2
 8010d96:	fb09 4202 	mla	r2, r9, r2, r4
 8010d9a:	7e52      	ldrb	r2, [r2, #25]
 8010d9c:	b2d2      	uxtb	r2, r2
 8010d9e:	2a06      	cmp	r2, #6
 8010da0:	d004      	beq.n	8010dac <HW_TS_Start+0xc4>
 8010da2:	fb09 4202 	mla	r2, r9, r2, r4
 8010da6:	68d2      	ldr	r2, [r2, #12]
 8010da8:	4291      	cmp	r1, r2
 8010daa:	d214      	bcs.n	8010dd6 <HW_TS_Start+0xee>
 8010dac:	2218      	movs	r2, #24
 8010dae:	fb02 4103 	mla	r1, r2, r3, r4
 8010db2:	7e49      	ldrb	r1, [r1, #25]
 8010db4:	fa5f fc81 	uxtb.w	ip, r1
 8010db8:	2906      	cmp	r1, #6
 8010dba:	bf1c      	itt	ne
 8010dbc:	fb02 420c 	mlane	r2, r2, ip, r4
 8010dc0:	7615      	strbne	r5, [r2, #24]
 8010dc2:	2218      	movs	r2, #24
 8010dc4:	fb02 4105 	mla	r1, r2, r5, r4
 8010dc8:	f881 c019 	strb.w	ip, [r1, #25]
 8010dcc:	760b      	strb	r3, [r1, #24]
 8010dce:	fb02 4303 	mla	r3, r2, r3, r4
 8010dd2:	765d      	strb	r5, [r3, #25]
 8010dd4:	e7bd      	b.n	8010d52 <HW_TS_Start+0x6a>
 8010dd6:	fb09 4303 	mla	r3, r9, r3, r4
 8010dda:	7e5a      	ldrb	r2, [r3, #25]
 8010ddc:	e7da      	b.n	8010d94 <HW_TS_Start+0xac>
 8010dde:	7823      	ldrb	r3, [r4, #0]
 8010de0:	7822      	ldrb	r2, [r4, #0]
 8010de2:	4293      	cmp	r3, r2
 8010de4:	b2d9      	uxtb	r1, r3
 8010de6:	fb09 f303 	mul.w	r3, r9, r3
 8010dea:	d011      	beq.n	8010e10 <HW_TS_Start+0x128>
 8010dec:	4423      	add	r3, r4
 8010dee:	7e1a      	ldrb	r2, [r3, #24]
 8010df0:	fb09 4902 	mla	r9, r9, r2, r4
 8010df4:	fa5f fc82 	uxtb.w	ip, r2
 8010df8:	f889 5019 	strb.w	r5, [r9, #25]
 8010dfc:	f888 1019 	strb.w	r1, [r8, #25]
 8010e00:	f888 c018 	strb.w	ip, [r8, #24]
 8010e04:	761d      	strb	r5, [r3, #24]
 8010e06:	7823      	ldrb	r3, [r4, #0]
 8010e08:	b2db      	uxtb	r3, r3
 8010e0a:	7063      	strb	r3, [r4, #1]
 8010e0c:	7025      	strb	r5, [r4, #0]
 8010e0e:	e7a0      	b.n	8010d52 <HW_TS_Start+0x6a>
 8010e10:	f888 1019 	strb.w	r1, [r8, #25]
 8010e14:	4423      	add	r3, r4
 8010e16:	e7f5      	b.n	8010e04 <HW_TS_Start+0x11c>
 8010e18:	2318      	movs	r3, #24
 8010e1a:	fb03 4405 	mla	r4, r3, r5, r4
 8010e1e:	68e3      	ldr	r3, [r4, #12]
 8010e20:	1a18      	subs	r0, r3, r0
 8010e22:	60e0      	str	r0, [r4, #12]
 8010e24:	e79b      	b.n	8010d5e <HW_TS_Start+0x76>
 8010e26:	bf00      	nop
 8010e28:	2000104c 	.word	0x2000104c
 8010e2c:	20001164 	.word	0x20001164

08010e30 <HW_TS_RTC_Int_AppNot>:
 8010e30:	4710      	bx	r2
	...

08010e34 <HW_TS_RTC_Wakeup_Handler>:
 8010e34:	e92d 4ff8 	stmdb	sp!, {r3, r4, r5, r6, r7, r8, r9, sl, fp, lr}
 8010e38:	f3ef 8610 	mrs	r6, PRIMASK
 8010e3c:	b672      	cpsid	i
 8010e3e:	4d2a      	ldr	r5, [pc, #168]	; (8010ee8 <HW_TS_RTC_Wakeup_Handler+0xb4>)
 8010e40:	492a      	ldr	r1, [pc, #168]	; (8010eec <HW_TS_RTC_Wakeup_Handler+0xb8>)
 8010e42:	682b      	ldr	r3, [r5, #0]
 8010e44:	681b      	ldr	r3, [r3, #0]
 8010e46:	f04f 09ca 	mov.w	r9, #202	; 0xca
 8010e4a:	f04f 0853 	mov.w	r8, #83	; 0x53
 8010e4e:	f8c3 9024 	str.w	r9, [r3, #36]	; 0x24
 8010e52:	f8c3 8024 	str.w	r8, [r3, #36]	; 0x24
 8010e56:	689a      	ldr	r2, [r3, #8]
 8010e58:	f422 6280 	bic.w	r2, r2, #1024	; 0x400
 8010e5c:	609a      	str	r2, [r3, #8]
 8010e5e:	780c      	ldrb	r4, [r1, #0]
 8010e60:	2218      	movs	r2, #24
 8010e62:	b2e7      	uxtb	r7, r4
 8010e64:	fb02 1404 	mla	r4, r2, r4, r1
 8010e68:	7c22      	ldrb	r2, [r4, #16]
 8010e6a:	2a02      	cmp	r2, #2
 8010e6c:	d12f      	bne.n	8010ece <HW_TS_RTC_Wakeup_Handler+0x9a>
 8010e6e:	f8d4 b004 	ldr.w	fp, [r4, #4]
 8010e72:	f8d4 a014 	ldr.w	sl, [r4, #20]
 8010e76:	f891 3098 	ldrb.w	r3, [r1, #152]	; 0x98
 8010e7a:	b31b      	cbz	r3, 8010ec4 <HW_TS_RTC_Wakeup_Handler+0x90>
 8010e7c:	7c63      	ldrb	r3, [r4, #17]
 8010e7e:	2b01      	cmp	r3, #1
 8010e80:	b2d9      	uxtb	r1, r3
 8010e82:	d119      	bne.n	8010eb8 <HW_TS_RTC_Wakeup_Handler+0x84>
 8010e84:	4638      	mov	r0, r7
 8010e86:	f7ff fd59 	bl	801093c <UnlinkTimer>
 8010e8a:	f386 8810 	msr	PRIMASK, r6
 8010e8e:	68a1      	ldr	r1, [r4, #8]
 8010e90:	4638      	mov	r0, r7
 8010e92:	f7ff ff29 	bl	8010ce8 <HW_TS_Start>
 8010e96:	682b      	ldr	r3, [r5, #0]
 8010e98:	681b      	ldr	r3, [r3, #0]
 8010e9a:	465a      	mov	r2, fp
 8010e9c:	f8c3 9024 	str.w	r9, [r3, #36]	; 0x24
 8010ea0:	4639      	mov	r1, r7
 8010ea2:	f8c3 8024 	str.w	r8, [r3, #36]	; 0x24
 8010ea6:	4650      	mov	r0, sl
 8010ea8:	f7ff ffc2 	bl	8010e30 <HW_TS_RTC_Int_AppNot>
 8010eac:	682b      	ldr	r3, [r5, #0]
 8010eae:	681b      	ldr	r3, [r3, #0]
 8010eb0:	22ff      	movs	r2, #255	; 0xff
 8010eb2:	625a      	str	r2, [r3, #36]	; 0x24
 8010eb4:	e8bd 8ff8 	ldmia.w	sp!, {r3, r4, r5, r6, r7, r8, r9, sl, fp, pc}
 8010eb8:	f386 8810 	msr	PRIMASK, r6
 8010ebc:	4638      	mov	r0, r7
 8010ebe:	f7ff febb 	bl	8010c38 <HW_TS_Stop>
 8010ec2:	e7e8      	b.n	8010e96 <HW_TS_RTC_Wakeup_Handler+0x62>
 8010ec4:	f7ff fd98 	bl	80109f8 <RescheduleTimerList>
 8010ec8:	f386 8810 	msr	PRIMASK, r6
 8010ecc:	e7ee      	b.n	8010eac <HW_TS_RTC_Wakeup_Handler+0x78>
 8010ece:	68da      	ldr	r2, [r3, #12]
 8010ed0:	0752      	lsls	r2, r2, #29
 8010ed2:	d5fc      	bpl.n	8010ece <HW_TS_RTC_Wakeup_Handler+0x9a>
 8010ed4:	68da      	ldr	r2, [r3, #12]
 8010ed6:	b2d2      	uxtb	r2, r2
 8010ed8:	f462 6290 	orn	r2, r2, #1152	; 0x480
 8010edc:	60da      	str	r2, [r3, #12]
 8010ede:	4b04      	ldr	r3, [pc, #16]	; (8010ef0 <HW_TS_RTC_Wakeup_Handler+0xbc>)
 8010ee0:	f44f 2200 	mov.w	r2, #524288	; 0x80000
 8010ee4:	60da      	str	r2, [r3, #12]
 8010ee6:	e7ef      	b.n	8010ec8 <HW_TS_RTC_Wakeup_Handler+0x94>
 8010ee8:	20001164 	.word	0x20001164
 8010eec:	2000104c 	.word	0x2000104c
 8010ef0:	58000800 	.word	0x58000800

08010ef4 <LL_AHB2_GRP1_EnableClock>:
 8010ef4:	f04f 43b0 	mov.w	r3, #1476395008	; 0x58000000
 8010ef8:	b082      	sub	sp, #8
 8010efa:	6cda      	ldr	r2, [r3, #76]	; 0x4c
 8010efc:	4302      	orrs	r2, r0
 8010efe:	64da      	str	r2, [r3, #76]	; 0x4c
 8010f00:	6cdb      	ldr	r3, [r3, #76]	; 0x4c
 8010f02:	4018      	ands	r0, r3
 8010f04:	9001      	str	r0, [sp, #4]
 8010f06:	9b01      	ldr	r3, [sp, #4]
 8010f08:	b002      	add	sp, #8
 8010f0a:	4770      	bx	lr

08010f0c <HW_UART_Init>:
 8010f0c:	4603      	mov	r3, r0
 8010f0e:	b988      	cbnz	r0, 8010f34 <HW_UART_Init+0x28>
 8010f10:	4809      	ldr	r0, [pc, #36]	; (8010f38 <HW_UART_Init+0x2c>)
 8010f12:	490a      	ldr	r1, [pc, #40]	; (8010f3c <HW_UART_Init+0x30>)
 8010f14:	6103      	str	r3, [r0, #16]
 8010f16:	f44f 32e1 	mov.w	r2, #115200	; 0x1c200
 8010f1a:	e9c0 1200 	strd	r1, r2, [r0]
 8010f1e:	220c      	movs	r2, #12
 8010f20:	6142      	str	r2, [r0, #20]
 8010f22:	f44f 4200 	mov.w	r2, #32768	; 0x8000
 8010f26:	e9c0 3302 	strd	r3, r3, [r0, #8]
 8010f2a:	6183      	str	r3, [r0, #24]
 8010f2c:	61c2      	str	r2, [r0, #28]
 8010f2e:	6283      	str	r3, [r0, #40]	; 0x28
 8010f30:	f001 be35 	b.w	8012b9e <HAL_UART_Init>
 8010f34:	4770      	bx	lr
 8010f36:	bf00      	nop
 8010f38:	200011c8 	.word	0x200011c8
 8010f3c:	40013800 	.word	0x40013800

08010f40 <HW_UART_Interrupt_Handler>:
 8010f40:	b910      	cbnz	r0, 8010f48 <HW_UART_Interrupt_Handler+0x8>
 8010f42:	4802      	ldr	r0, [pc, #8]	; (8010f4c <HW_UART_Interrupt_Handler+0xc>)
 8010f44:	f001 bb20 	b.w	8012588 <HAL_UART_IRQHandler>
 8010f48:	4770      	bx	lr
 8010f4a:	bf00      	nop
 8010f4c:	200011c8 	.word	0x200011c8

08010f50 <HW_UART_DMA_Interrupt_Handler>:
 8010f50:	b918      	cbnz	r0, 8010f5a <HW_UART_DMA_Interrupt_Handler+0xa>
 8010f52:	4b02      	ldr	r3, [pc, #8]	; (8010f5c <HW_UART_DMA_Interrupt_Handler+0xc>)
 8010f54:	6f98      	ldr	r0, [r3, #120]	; 0x78
 8010f56:	f000 bf89 	b.w	8011e6c <HAL_DMA_IRQHandler>
 8010f5a:	4770      	bx	lr
 8010f5c:	200011c8 	.word	0x200011c8

08010f60 <HAL_UART_MspInit>:
 8010f60:	e92d 43f0 	stmdb	sp!, {r4, r5, r6, r7, r8, r9, lr}
 8010f64:	4606      	mov	r6, r0
 8010f66:	b089      	sub	sp, #36	; 0x24
 8010f68:	2214      	movs	r2, #20
 8010f6a:	2100      	movs	r1, #0
 8010f6c:	a803      	add	r0, sp, #12
 8010f6e:	f002 ff57 	bl	8013e20 <memset>
 8010f72:	6832      	ldr	r2, [r6, #0]
 8010f74:	4b3f      	ldr	r3, [pc, #252]	; (8011074 <HAL_UART_MspInit+0x114>)
 8010f76:	429a      	cmp	r2, r3
 8010f78:	d179      	bne.n	801106e <HAL_UART_MspInit+0x10e>
 8010f7a:	2002      	movs	r0, #2
 8010f7c:	f7ff ffba 	bl	8010ef4 <LL_AHB2_GRP1_EnableClock>
 8010f80:	2500      	movs	r5, #0
 8010f82:	2340      	movs	r3, #64	; 0x40
 8010f84:	2402      	movs	r4, #2
 8010f86:	f04f 0807 	mov.w	r8, #7
 8010f8a:	f04f 0903 	mov.w	r9, #3
 8010f8e:	a903      	add	r1, sp, #12
 8010f90:	4839      	ldr	r0, [pc, #228]	; (8011078 <HAL_UART_MspInit+0x118>)
 8010f92:	f8cd 801c 	str.w	r8, [sp, #28]
 8010f96:	e9cd 3403 	strd	r3, r4, [sp, #12]
 8010f9a:	e9cd 5905 	strd	r5, r9, [sp, #20]
 8010f9e:	f001 f8ab 	bl	80120f8 <HAL_GPIO_Init>
 8010fa2:	4620      	mov	r0, r4
 8010fa4:	f7ff ffa6 	bl	8010ef4 <LL_AHB2_GRP1_EnableClock>
 8010fa8:	2780      	movs	r7, #128	; 0x80
 8010faa:	a903      	add	r1, sp, #12
 8010fac:	4832      	ldr	r0, [pc, #200]	; (8011078 <HAL_UART_MspInit+0x118>)
 8010fae:	f8cd 801c 	str.w	r8, [sp, #28]
 8010fb2:	e9cd 7403 	strd	r7, r4, [sp, #12]
 8010fb6:	e9cd 5905 	strd	r5, r9, [sp, #20]
 8010fba:	f001 f89d 	bl	80120f8 <HAL_GPIO_Init>
 8010fbe:	2001      	movs	r0, #1
 8010fc0:	f7ff ff98 	bl	8010ef4 <LL_AHB2_GRP1_EnableClock>
 8010fc4:	f44f 6300 	mov.w	r3, #2048	; 0x800
 8010fc8:	e9cd 3403 	strd	r3, r4, [sp, #12]
 8010fcc:	e9cd 4905 	strd	r4, r9, [sp, #20]
 8010fd0:	f04f 44b0 	mov.w	r4, #1476395008	; 0x58000000
 8010fd4:	a903      	add	r1, sp, #12
 8010fd6:	f04f 4090 	mov.w	r0, #1207959552	; 0x48000000
 8010fda:	f8cd 801c 	str.w	r8, [sp, #28]
 8010fde:	f001 f88b 	bl	80120f8 <HAL_GPIO_Init>
 8010fe2:	f8d4 3088 	ldr.w	r3, [r4, #136]	; 0x88
 8010fe6:	f023 0303 	bic.w	r3, r3, #3
 8010fea:	f043 0301 	orr.w	r3, r3, #1
 8010fee:	f8c4 3088 	str.w	r3, [r4, #136]	; 0x88
 8010ff2:	6e23      	ldr	r3, [r4, #96]	; 0x60
 8010ff4:	f443 4380 	orr.w	r3, r3, #16384	; 0x4000
 8010ff8:	6623      	str	r3, [r4, #96]	; 0x60
 8010ffa:	6e23      	ldr	r3, [r4, #96]	; 0x60
 8010ffc:	f403 4380 	and.w	r3, r3, #16384	; 0x4000
 8011000:	462a      	mov	r2, r5
 8011002:	210f      	movs	r1, #15
 8011004:	9302      	str	r3, [sp, #8]
 8011006:	2024      	movs	r0, #36	; 0x24
 8011008:	9b02      	ldr	r3, [sp, #8]
 801100a:	f000 fda5 	bl	8011b58 <HAL_NVIC_SetPriority>
 801100e:	2024      	movs	r0, #36	; 0x24
 8011010:	f000 fdd4 	bl	8011bbc <HAL_NVIC_EnableIRQ>
 8011014:	6ca3      	ldr	r3, [r4, #72]	; 0x48
 8011016:	f043 0302 	orr.w	r3, r3, #2
 801101a:	64a3      	str	r3, [r4, #72]	; 0x48
 801101c:	6ca3      	ldr	r3, [r4, #72]	; 0x48
 801101e:	f003 0302 	and.w	r3, r3, #2
 8011022:	9301      	str	r3, [sp, #4]
 8011024:	9b01      	ldr	r3, [sp, #4]
 8011026:	6ca3      	ldr	r3, [r4, #72]	; 0x48
 8011028:	f043 0304 	orr.w	r3, r3, #4
 801102c:	64a3      	str	r3, [r4, #72]	; 0x48
 801102e:	6ca3      	ldr	r3, [r4, #72]	; 0x48
 8011030:	4c12      	ldr	r4, [pc, #72]	; (801107c <HAL_UART_MspInit+0x11c>)
 8011032:	f003 0304 	and.w	r3, r3, #4
 8011036:	9300      	str	r3, [sp, #0]
 8011038:	9b00      	ldr	r3, [sp, #0]
 801103a:	4b11      	ldr	r3, [pc, #68]	; (8011080 <HAL_UART_MspInit+0x120>)
 801103c:	6225      	str	r5, [r4, #32]
 801103e:	f04f 080f 	mov.w	r8, #15
 8011042:	e9c4 3800 	strd	r3, r8, [r4]
 8011046:	4620      	mov	r0, r4
 8011048:	2310      	movs	r3, #16
 801104a:	e9c4 3502 	strd	r3, r5, [r4, #8]
 801104e:	e9c4 7504 	strd	r7, r5, [r4, #16]
 8011052:	e9c4 5506 	strd	r5, r5, [r4, #24]
 8011056:	f000 fe2d 	bl	8011cb4 <HAL_DMA_Init>
 801105a:	203a      	movs	r0, #58	; 0x3a
 801105c:	67b4      	str	r4, [r6, #120]	; 0x78
 801105e:	462a      	mov	r2, r5
 8011060:	4641      	mov	r1, r8
 8011062:	62a6      	str	r6, [r4, #40]	; 0x28
 8011064:	f000 fd78 	bl	8011b58 <HAL_NVIC_SetPriority>
 8011068:	203a      	movs	r0, #58	; 0x3a
 801106a:	f000 fda7 	bl	8011bbc <HAL_NVIC_EnableIRQ>
 801106e:	b009      	add	sp, #36	; 0x24
 8011070:	e8bd 83f0 	ldmia.w	sp!, {r4, r5, r6, r7, r8, r9, pc}
 8011074:	40013800 	.word	0x40013800
 8011078:	48000400 	.word	0x48000400
 801107c:	20001168 	.word	0x20001168
 8011080:	40020444 	.word	0x40020444

08011084 <HAL_UART_TxCpltCallback>:
 8011084:	6802      	ldr	r2, [r0, #0]
 8011086:	4b04      	ldr	r3, [pc, #16]	; (8011098 <HAL_UART_TxCpltCallback+0x14>)
 8011088:	429a      	cmp	r2, r3
 801108a:	d103      	bne.n	8011094 <HAL_UART_TxCpltCallback+0x10>
 801108c:	4b03      	ldr	r3, [pc, #12]	; (801109c <HAL_UART_TxCpltCallback+0x18>)
 801108e:	681b      	ldr	r3, [r3, #0]
 8011090:	b103      	cbz	r3, 8011094 <HAL_UART_TxCpltCallback+0x10>
 8011092:	4718      	bx	r3
 8011094:	4770      	bx	lr
 8011096:	bf00      	nop
 8011098:	40013800 	.word	0x40013800
 801109c:	200023d4 	.word	0x200023d4

080110a0 <main>:
 80110a0:	4b47      	ldr	r3, [pc, #284]	; (80111c0 <main+0x120>)
 80110a2:	b507      	push	{r0, r1, r2, lr}
 80110a4:	f04f 44b0 	mov.w	r4, #1476395008	; 0x58000000
 80110a8:	f44f 4200 	mov.w	r2, #32768	; 0x8000
 80110ac:	611a      	str	r2, [r3, #16]
 80110ae:	f000 fd09 	bl	8011ac4 <HAL_Init>
 80110b2:	f8d4 3094 	ldr.w	r3, [r4, #148]	; 0x94
 80110b6:	015b      	lsls	r3, r3, #5
 80110b8:	d513      	bpl.n	80110e2 <main+0x42>
 80110ba:	f8d4 3094 	ldr.w	r3, [r4, #148]	; 0x94
 80110be:	00d8      	lsls	r0, r3, #3
 80110c0:	d40f      	bmi.n	80110e2 <main+0x42>
 80110c2:	f001 f8d5 	bl	8012270 <HAL_PWR_EnableBkUpAccess>
 80110c6:	f001 f8d3 	bl	8012270 <HAL_PWR_EnableBkUpAccess>
 80110ca:	f8d4 3090 	ldr.w	r3, [r4, #144]	; 0x90
 80110ce:	f443 3380 	orr.w	r3, r3, #65536	; 0x10000
 80110d2:	f8c4 3090 	str.w	r3, [r4, #144]	; 0x90
 80110d6:	f8d4 3090 	ldr.w	r3, [r4, #144]	; 0x90
 80110da:	f423 3380 	bic.w	r3, r3, #65536	; 0x10000
 80110de:	f8c4 3090 	str.w	r3, [r4, #144]	; 0x90
 80110e2:	f04f 44b0 	mov.w	r4, #1476395008	; 0x58000000
 80110e6:	223f      	movs	r2, #63	; 0x3f
 80110e8:	6d23      	ldr	r3, [r4, #80]	; 0x50
 80110ea:	f443 1380 	orr.w	r3, r3, #1048576	; 0x100000
 80110ee:	6523      	str	r3, [r4, #80]	; 0x50
 80110f0:	6d23      	ldr	r3, [r4, #80]	; 0x50
 80110f2:	f403 1380 	and.w	r3, r3, #1048576	; 0x100000
 80110f6:	9301      	str	r3, [sp, #4]
 80110f8:	9b01      	ldr	r3, [sp, #4]
 80110fa:	4b32      	ldr	r3, [pc, #200]	; (80111c4 <main+0x124>)
 80110fc:	609a      	str	r2, [r3, #8]
 80110fe:	619a      	str	r2, [r3, #24]
 8011100:	685a      	ldr	r2, [r3, #4]
 8011102:	f442 127c 	orr.w	r2, r2, #4128768	; 0x3f0000
 8011106:	605a      	str	r2, [r3, #4]
 8011108:	695a      	ldr	r2, [r3, #20]
 801110a:	f442 127c 	orr.w	r2, r2, #4128768	; 0x3f0000
 801110e:	615a      	str	r2, [r3, #20]
 8011110:	685a      	ldr	r2, [r3, #4]
 8011112:	f042 023f 	orr.w	r2, r2, #63	; 0x3f
 8011116:	605a      	str	r2, [r3, #4]
 8011118:	695a      	ldr	r2, [r3, #20]
 801111a:	f042 023f 	orr.w	r2, r2, #63	; 0x3f
 801111e:	615a      	str	r2, [r3, #20]
 8011120:	f001 f8a6 	bl	8012270 <HAL_PWR_EnableBkUpAccess>
 8011124:	f001 f8a4 	bl	8012270 <HAL_PWR_EnableBkUpAccess>
 8011128:	f8d4 3090 	ldr.w	r3, [r4, #144]	; 0x90
 801112c:	f043 0301 	orr.w	r3, r3, #1
 8011130:	f8c4 3090 	str.w	r3, [r4, #144]	; 0x90
 8011134:	f8d4 3090 	ldr.w	r3, [r4, #144]	; 0x90
 8011138:	0799      	lsls	r1, r3, #30
 801113a:	d5fb      	bpl.n	8011134 <main+0x94>
 801113c:	f8d4 3094 	ldr.w	r3, [r4, #148]	; 0x94
 8011140:	f423 4340 	bic.w	r3, r3, #49152	; 0xc000
 8011144:	f443 4380 	orr.w	r3, r3, #16384	; 0x4000
 8011148:	f8c4 3094 	str.w	r3, [r4, #148]	; 0x94
 801114c:	4b1e      	ldr	r3, [pc, #120]	; (80111c8 <main+0x128>)
 801114e:	f8d3 2080 	ldr.w	r2, [r3, #128]	; 0x80
 8011152:	2200      	movs	r2, #0
 8011154:	f8c3 2080 	str.w	r2, [r3, #128]	; 0x80
 8011158:	f8d3 2090 	ldr.w	r2, [r3, #144]	; 0x90
 801115c:	f002 0250 	and.w	r2, r2, #80	; 0x50
 8011160:	f8c3 2090 	str.w	r2, [r3, #144]	; 0x90
 8011164:	f001 f884 	bl	8012270 <HAL_PWR_EnableBkUpAccess>
 8011168:	f001 f882 	bl	8012270 <HAL_PWR_EnableBkUpAccess>
 801116c:	f8d4 3090 	ldr.w	r3, [r4, #144]	; 0x90
 8011170:	4816      	ldr	r0, [pc, #88]	; (80111cc <main+0x12c>)
 8011172:	f423 7340 	bic.w	r3, r3, #768	; 0x300
 8011176:	f443 7380 	orr.w	r3, r3, #256	; 0x100
 801117a:	f8c4 3090 	str.w	r3, [r4, #144]	; 0x90
 801117e:	f8d4 3090 	ldr.w	r3, [r4, #144]	; 0x90
 8011182:	f443 4300 	orr.w	r3, r3, #32768	; 0x8000
 8011186:	f8c4 3090 	str.w	r3, [r4, #144]	; 0x90
 801118a:	220f      	movs	r2, #15
 801118c:	4c10      	ldr	r4, [pc, #64]	; (80111d0 <main+0x130>)
 801118e:	6004      	str	r4, [r0, #0]
 8011190:	f647 73ff 	movw	r3, #32767	; 0x7fff
 8011194:	e9c0 2302 	strd	r2, r3, [r0, #8]
 8011198:	f001 f975 	bl	8012486 <HAL_RTC_Init>
 801119c:	23ca      	movs	r3, #202	; 0xca
 801119e:	6263      	str	r3, [r4, #36]	; 0x24
 80111a0:	2353      	movs	r3, #83	; 0x53
 80111a2:	6263      	str	r3, [r4, #36]	; 0x24
 80111a4:	68a3      	ldr	r3, [r4, #8]
 80111a6:	f023 0307 	bic.w	r3, r3, #7
 80111aa:	60a3      	str	r3, [r4, #8]
 80111ac:	23ff      	movs	r3, #255	; 0xff
 80111ae:	6263      	str	r3, [r4, #36]	; 0x24
 80111b0:	f7ff fa82 	bl	80106b8 <APPE_Init>
 80111b4:	f04f 30ff 	mov.w	r0, #4294967295	; 0xffffffff
 80111b8:	f002 fd3e 	bl	8013c38 <UTIL_SEQ_Run>
 80111bc:	e7fa      	b.n	80111b4 <main+0x114>
 80111be:	bf00      	nop
 80111c0:	58004000 	.word	0x58004000
 80111c4:	58000c00 	.word	0x58000c00
 80111c8:	58000800 	.word	0x58000800
 80111cc:	20001258 	.word	0x20001258
 80111d0:	40002800 	.word	0x40002800

080111d4 <HAL_Delay>:
 80111d4:	b570      	push	{r4, r5, r6, lr}
 80111d6:	4604      	mov	r4, r0
 80111d8:	f000 fc90 	bl	8011afc <HAL_GetTick>
 80111dc:	1c63      	adds	r3, r4, #1
 80111de:	4605      	mov	r5, r0
 80111e0:	d002      	beq.n	80111e8 <HAL_Delay+0x14>
 80111e2:	f000 fc91 	bl	8011b08 <HAL_GetTickFreq>
 80111e6:	4404      	add	r4, r0
 80111e8:	4e06      	ldr	r6, [pc, #24]	; (8011204 <HAL_Delay+0x30>)
 80111ea:	e004      	b.n	80111f6 <HAL_Delay+0x22>
 80111ec:	6933      	ldr	r3, [r6, #16]
 80111ee:	f023 0304 	bic.w	r3, r3, #4
 80111f2:	6133      	str	r3, [r6, #16]
 80111f4:	bf30      	wfi
 80111f6:	f000 fc81 	bl	8011afc <HAL_GetTick>
 80111fa:	1b43      	subs	r3, r0, r5
 80111fc:	42a3      	cmp	r3, r4
 80111fe:	d3f5      	bcc.n	80111ec <HAL_Delay+0x18>
 8011200:	bd70      	pop	{r4, r5, r6, pc}
 8011202:	bf00      	nop
 8011204:	e000ed00 	.word	0xe000ed00

08011208 <Error_Handler>:
 8011208:	4770      	bx	lr

0801120a <NMI_Handler>:
 801120a:	4770      	bx	lr

0801120c <HardFault_Handler>:
 801120c:	e7fe      	b.n	801120c <HardFault_Handler>

0801120e <SVC_Handler>:
 801120e:	4770      	bx	lr

08011210 <DebugMon_Handler>:
 8011210:	4770      	bx	lr

08011212 <PendSV_Handler>:
 8011212:	4770      	bx	lr

08011214 <SysTick_Handler>:
 8011214:	f000 bc66 	b.w	8011ae4 <HAL_IncTick>

08011218 <USART1_IRQHandler>:
 8011218:	2000      	movs	r0, #0
 801121a:	f7ff be91 	b.w	8010f40 <HW_UART_Interrupt_Handler>

0801121e <DMA2_Channel4_IRQHandler>:
 801121e:	2000      	movs	r0, #0
 8011220:	f7ff be96 	b.w	8010f50 <HW_UART_DMA_Interrupt_Handler>

08011224 <RTC_WKUP_IRQHandler>:
 8011224:	f7ff be06 	b.w	8010e34 <HW_TS_RTC_Wakeup_Handler>

08011228 <IPCC_C1_TX_IRQHandler>:
 8011228:	f000 ba6c 	b.w	8011704 <HW_IPCC_Tx_Handler>

0801122c <IPCC_C1_RX_IRQHandler>:
 801122c:	f000 baca 	b.w	80117c4 <HW_IPCC_Rx_Handler>

08011230 <BLE_UserEvtRx>:
 8011230:	b510      	push	{r4, lr}
 8011232:	4604      	mov	r4, r0
 8011234:	6840      	ldr	r0, [r0, #4]
 8011236:	3008      	adds	r0, #8
 8011238:	f001 fdea 	bl	8012e10 <SVCCTL_UserEvtRx>
 801123c:	3800      	subs	r0, #0
 801123e:	bf18      	it	ne
 8011240:	2001      	movne	r0, #1
 8011242:	7020      	strb	r0, [r4, #0]
 8011244:	bd10      	pop	{r4, pc}

08011246 <BLE_StatusNot>:
 8011246:	b110      	cbz	r0, 801124e <BLE_StatusNot+0x8>
 8011248:	2801      	cmp	r0, #1
 801124a:	d003      	beq.n	8011254 <BLE_StatusNot+0xe>
 801124c:	4770      	bx	lr
 801124e:	2001      	movs	r0, #1
 8011250:	f002 bcaa 	b.w	8013ba8 <UTIL_SEQ_PauseTask>
 8011254:	f002 bcb6 	b.w	8013bc4 <UTIL_SEQ_ResumeTask>

08011258 <Adv_Request>:
 8011258:	b500      	push	{lr}
 801125a:	b089      	sub	sp, #36	; 0x24
 801125c:	4a0a      	ldr	r2, [pc, #40]	; (8011288 <Adv_Request+0x30>)
 801125e:	9202      	str	r2, [sp, #8]
 8011260:	2300      	movs	r3, #0
 8011262:	2208      	movs	r2, #8
 8011264:	e9cd 3200 	strd	r3, r2, [sp]
 8011268:	e9cd 3305 	strd	r3, r3, [sp, #20]
 801126c:	e9cd 3303 	strd	r3, r3, [sp, #12]
 8011270:	22a0      	movs	r2, #160	; 0xa0
 8011272:	2180      	movs	r1, #128	; 0x80
 8011274:	4618      	mov	r0, r3
 8011276:	f001 fdef 	bl	8012e58 <aci_gap_set_discoverable>
 801127a:	4904      	ldr	r1, [pc, #16]	; (801128c <Adv_Request+0x34>)
 801127c:	200e      	movs	r0, #14
 801127e:	b009      	add	sp, #36	; 0x24
 8011280:	f85d eb04 	ldr.w	lr, [sp], #4
 8011284:	f001 bee0 	b.w	8013048 <aci_gap_update_adv_data>
 8011288:	08014001 	.word	0x08014001
 801128c:	20001010 	.word	0x20001010

08011290 <BleGetBdAddress>:
 8011290:	b508      	push	{r3, lr}
 8011292:	4b0d      	ldr	r3, [pc, #52]	; (80112c8 <BleGetBdAddress+0x38>)
 8011294:	681a      	ldr	r2, [r3, #0]
 8011296:	1c51      	adds	r1, r2, #1
 8011298:	d00d      	beq.n	80112b6 <BleGetBdAddress+0x26>
 801129a:	3304      	adds	r3, #4
 801129c:	480b      	ldr	r0, [pc, #44]	; (80112cc <BleGetBdAddress+0x3c>)
 801129e:	681b      	ldr	r3, [r3, #0]
 80112a0:	7002      	strb	r2, [r0, #0]
 80112a2:	0a12      	lsrs	r2, r2, #8
 80112a4:	7042      	strb	r2, [r0, #1]
 80112a6:	0a1a      	lsrs	r2, r3, #8
 80112a8:	7083      	strb	r3, [r0, #2]
 80112aa:	70c2      	strb	r2, [r0, #3]
 80112ac:	0c1a      	lsrs	r2, r3, #16
 80112ae:	0e1b      	lsrs	r3, r3, #24
 80112b0:	7102      	strb	r2, [r0, #4]
 80112b2:	7143      	strb	r3, [r0, #5]
 80112b4:	bd08      	pop	{r3, pc}
 80112b6:	2000      	movs	r0, #0
 80112b8:	f002 fbe0 	bl	8013a7c <OTP_Read>
 80112bc:	4b04      	ldr	r3, [pc, #16]	; (80112d0 <BleGetBdAddress+0x40>)
 80112be:	2800      	cmp	r0, #0
 80112c0:	bf08      	it	eq
 80112c2:	4618      	moveq	r0, r3
 80112c4:	e7f6      	b.n	80112b4 <BleGetBdAddress+0x24>
 80112c6:	bf00      	nop
 80112c8:	1fff7580 	.word	0x1fff7580
 80112cc:	2000127c 	.word	0x2000127c
 80112d0:	08013ffb 	.word	0x08013ffb

080112d4 <APP_BLE_Init>:
 80112d4:	b570      	push	{r4, r5, r6, lr}
 80112d6:	4b5c      	ldr	r3, [pc, #368]	; (8011448 <APP_BLE_Init+0x174>)
 80112d8:	b096      	sub	sp, #88	; 0x58
 80112da:	aa0a      	add	r2, sp, #40	; 0x28
 80112dc:	f103 0630 	add.w	r6, r3, #48	; 0x30
 80112e0:	4615      	mov	r5, r2
 80112e2:	6818      	ldr	r0, [r3, #0]
 80112e4:	6859      	ldr	r1, [r3, #4]
 80112e6:	4614      	mov	r4, r2
 80112e8:	c403      	stmia	r4!, {r0, r1}
 80112ea:	3308      	adds	r3, #8
 80112ec:	42b3      	cmp	r3, r6
 80112ee:	4622      	mov	r2, r4
 80112f0:	d1f7      	bne.n	80112e2 <APP_BLE_Init+0xe>
 80112f2:	4b56      	ldr	r3, [pc, #344]	; (801144c <APP_BLE_Init+0x178>)
 80112f4:	4856      	ldr	r0, [pc, #344]	; (8011450 <APP_BLE_Init+0x17c>)
 80112f6:	9308      	str	r3, [sp, #32]
 80112f8:	a908      	add	r1, sp, #32
 80112fa:	4b56      	ldr	r3, [pc, #344]	; (8011454 <APP_BLE_Init+0x180>)
 80112fc:	9309      	str	r3, [sp, #36]	; 0x24
 80112fe:	f002 f8d9 	bl	80134b4 <hci_init>
 8011302:	2101      	movs	r1, #1
 8011304:	2002      	movs	r0, #2
 8011306:	f002 fc23 	bl	8013b50 <UTIL_LPM_SetOffMode>
 801130a:	2001      	movs	r0, #1
 801130c:	4a52      	ldr	r2, [pc, #328]	; (8011458 <APP_BLE_Init+0x184>)
 801130e:	2100      	movs	r1, #0
 8011310:	f002 fd44 	bl	8013d9c <UTIL_SEQ_RegTask>
 8011314:	4628      	mov	r0, r5
 8011316:	f002 f892 	bl	801343e <SHCI_C2_BLE_Init>
 801131a:	b108      	cbz	r0, 8011320 <APP_BLE_Init+0x4c>
 801131c:	f7ff ff74 	bl	8011208 <Error_Handler>
 8011320:	2400      	movs	r4, #0
 8011322:	f8ad 4018 	strh.w	r4, [sp, #24]
 8011326:	f002 f837 	bl	8013398 <hci_reset>
 801132a:	f7ff ffb1 	bl	8011290 <BleGetBdAddress>
 801132e:	2106      	movs	r1, #6
 8011330:	4602      	mov	r2, r0
 8011332:	4620      	mov	r0, r4
 8011334:	f001 ffde 	bl	80132f4 <aci_hal_write_config_data>
 8011338:	f64e 536e 	movw	r3, #60782	; 0xed6e
 801133c:	9309      	str	r3, [sp, #36]	; 0x24
 801133e:	4b47      	ldr	r3, [pc, #284]	; (801145c <APP_BLE_Init+0x188>)
 8011340:	aa08      	add	r2, sp, #32
 8011342:	681b      	ldr	r3, [r3, #0]
 8011344:	9308      	str	r3, [sp, #32]
 8011346:	2106      	movs	r1, #6
 8011348:	202e      	movs	r0, #46	; 0x2e
 801134a:	f001 ffd3 	bl	80132f4 <aci_hal_write_config_data>
 801134e:	4a44      	ldr	r2, [pc, #272]	; (8011460 <APP_BLE_Init+0x18c>)
 8011350:	2110      	movs	r1, #16
 8011352:	2018      	movs	r0, #24
 8011354:	f001 ffce 	bl	80132f4 <aci_hal_write_config_data>
 8011358:	4a42      	ldr	r2, [pc, #264]	; (8011464 <APP_BLE_Init+0x190>)
 801135a:	2110      	movs	r1, #16
 801135c:	2008      	movs	r0, #8
 801135e:	f001 ffc9 	bl	80132f4 <aci_hal_write_config_data>
 8011362:	2118      	movs	r1, #24
 8011364:	2001      	movs	r0, #1
 8011366:	f001 fff1 	bl	801334c <aci_hal_set_tx_power_level>
 801136a:	f001 fe97 	bl	801309c <aci_gatt_init>
 801136e:	f10d 031e 	add.w	r3, sp, #30
 8011372:	9301      	str	r3, [sp, #4]
 8011374:	ab07      	add	r3, sp, #28
 8011376:	9300      	str	r3, [sp, #0]
 8011378:	4621      	mov	r1, r4
 801137a:	f10d 031a 	add.w	r3, sp, #26
 801137e:	2207      	movs	r2, #7
 8011380:	2001      	movs	r0, #1
 8011382:	f001 fe1f 	bl	8012fc4 <aci_gap_init>
 8011386:	4b38      	ldr	r3, [pc, #224]	; (8011468 <APP_BLE_Init+0x194>)
 8011388:	f8bd 101c 	ldrh.w	r1, [sp, #28]
 801138c:	9300      	str	r3, [sp, #0]
 801138e:	4622      	mov	r2, r4
 8011390:	f8bd 001a 	ldrh.w	r0, [sp, #26]
 8011394:	2307      	movs	r3, #7
 8011396:	f001 ff49 	bl	801322c <aci_gatt_update_char_value>
 801139a:	ab06      	add	r3, sp, #24
 801139c:	f8bd 101e 	ldrh.w	r1, [sp, #30]
 80113a0:	9300      	str	r3, [sp, #0]
 80113a2:	4622      	mov	r2, r4
 80113a4:	2302      	movs	r3, #2
 80113a6:	f8bd 001a 	ldrh.w	r0, [sp, #26]
 80113aa:	f001 ff3f 	bl	801322c <aci_gatt_update_char_value>
 80113ae:	4620      	mov	r0, r4
 80113b0:	f001 fdaa 	bl	8012f08 <aci_gap_set_io_capability>
 80113b4:	4b2d      	ldr	r3, [pc, #180]	; (801146c <APP_BLE_Init+0x198>)
 80113b6:	9404      	str	r4, [sp, #16]
 80113b8:	2101      	movs	r1, #1
 80113ba:	e9cd 4302 	strd	r4, r3, [sp, #8]
 80113be:	2210      	movs	r2, #16
 80113c0:	2308      	movs	r3, #8
 80113c2:	e9cd 3200 	strd	r3, r2, [sp]
 80113c6:	4608      	mov	r0, r1
 80113c8:	4623      	mov	r3, r4
 80113ca:	4622      	mov	r2, r4
 80113cc:	f001 fdbe 	bl	8012f4c <aci_gap_set_authentication_requirement>
 80113d0:	f001 fd08 	bl	8012de4 <SVCCTL_Init>
 80113d4:	4826      	ldr	r0, [pc, #152]	; (8011470 <APP_BLE_Init+0x19c>)
 80113d6:	4927      	ldr	r1, [pc, #156]	; (8011474 <APP_BLE_Init+0x1a0>)
 80113d8:	4b27      	ldr	r3, [pc, #156]	; (8011478 <APP_BLE_Init+0x1a4>)
 80113da:	1a09      	subs	r1, r1, r0
 80113dc:	f44f 4200 	mov.w	r2, #32768	; 0x8000
 80113e0:	f3c1 310b 	ubfx	r1, r1, #12, #12
 80113e4:	611a      	str	r2, [r3, #16]
 80113e6:	3101      	adds	r1, #1
 80113e8:	f3c0 300b 	ubfx	r0, r0, #12, #12
 80113ec:	f7ff fa38 	bl	8010860 <FD_EraseSectors>
 80113f0:	f7ff ff4e 	bl	8011290 <BleGetBdAddress>
 80113f4:	4b21      	ldr	r3, [pc, #132]	; (801147c <APP_BLE_Init+0x1a8>)
 80113f6:	7942      	ldrb	r2, [r0, #5]
 80113f8:	721a      	strb	r2, [r3, #8]
 80113fa:	7902      	ldrb	r2, [r0, #4]
 80113fc:	725a      	strb	r2, [r3, #9]
 80113fe:	78c2      	ldrb	r2, [r0, #3]
 8011400:	729a      	strb	r2, [r3, #10]
 8011402:	7882      	ldrb	r2, [r0, #2]
 8011404:	72da      	strb	r2, [r3, #11]
 8011406:	7842      	ldrb	r2, [r0, #1]
 8011408:	731a      	strb	r2, [r3, #12]
 801140a:	7802      	ldrb	r2, [r0, #0]
 801140c:	3201      	adds	r2, #1
 801140e:	735a      	strb	r2, [r3, #13]
 8011410:	7943      	ldrb	r3, [r0, #5]
 8011412:	f88d 3025 	strb.w	r3, [sp, #37]	; 0x25
 8011416:	7903      	ldrb	r3, [r0, #4]
 8011418:	f88d 3024 	strb.w	r3, [sp, #36]	; 0x24
 801141c:	78c3      	ldrb	r3, [r0, #3]
 801141e:	f88d 3023 	strb.w	r3, [sp, #35]	; 0x23
 8011422:	7883      	ldrb	r3, [r0, #2]
 8011424:	f88d 3022 	strb.w	r3, [sp, #34]	; 0x22
 8011428:	7843      	ldrb	r3, [r0, #1]
 801142a:	f88d 3021 	strb.w	r3, [sp, #33]	; 0x21
 801142e:	7803      	ldrb	r3, [r0, #0]
 8011430:	aa08      	add	r2, sp, #32
 8011432:	3301      	adds	r3, #1
 8011434:	2106      	movs	r1, #6
 8011436:	4620      	mov	r0, r4
 8011438:	f88d 3020 	strb.w	r3, [sp, #32]
 801143c:	f001 ff5a 	bl	80132f4 <aci_hal_write_config_data>
 8011440:	f7ff ff0a 	bl	8011258 <Adv_Request>
 8011444:	b016      	add	sp, #88	; 0x58
 8011446:	bd70      	pop	{r4, r5, r6, pc}
 8011448:	08013e93 	.word	0x08013e93
 801144c:	20030028 	.word	0x20030028
 8011450:	08011231 	.word	0x08011231
 8011454:	08011247 	.word	0x08011247
 8011458:	08013509 	.word	0x08013509
 801145c:	1fff7580 	.word	0x1fff7580
 8011460:	08013feb 	.word	0x08013feb
 8011464:	08013fdb 	.word	0x08013fdb
 8011468:	08013fd3 	.word	0x08013fd3
 801146c:	0001b207 	.word	0x0001b207
 8011470:	0804c000 	.word	0x0804c000
 8011474:	0807ffff 	.word	0x0807ffff
 8011478:	58004000 	.word	0x58004000
 801147c:	20001010 	.word	0x20001010

08011480 <SVCCTL_App_Notification>:
 8011480:	b508      	push	{r3, lr}
 8011482:	7843      	ldrb	r3, [r0, #1]
 8011484:	2b05      	cmp	r3, #5
 8011486:	d101      	bne.n	801148c <SVCCTL_App_Notification+0xc>
 8011488:	f7ff fee6 	bl	8011258 <Adv_Request>
 801148c:	2001      	movs	r0, #1
 801148e:	bd08      	pop	{r3, pc}

08011490 <hci_notify_asynch_evt>:
 8011490:	4b03      	ldr	r3, [pc, #12]	; (80114a0 <hci_notify_asynch_evt+0x10>)
 8011492:	f64a 22aa 	movw	r2, #43690	; 0xaaaa
 8011496:	601a      	str	r2, [r3, #0]
 8011498:	2100      	movs	r1, #0
 801149a:	2001      	movs	r0, #1
 801149c:	f002 bb6e 	b.w	8013b7c <UTIL_SEQ_SetTask>
 80114a0:	40003000 	.word	0x40003000

080114a4 <hci_cmd_resp_release>:
 80114a4:	2001      	movs	r0, #1
 80114a6:	f002 bb99 	b.w	8013bdc <UTIL_SEQ_SetEvt>

080114aa <hci_cmd_resp_wait>:
 80114aa:	2001      	movs	r0, #1
 80114ac:	f002 bc4e 	b.w	8013d4c <UTIL_SEQ_WaitEvt>

080114b0 <__NVIC_SystemReset>:
 80114b0:	f3bf 8f4f 	dsb	sy
 80114b4:	4905      	ldr	r1, [pc, #20]	; (80114cc <__NVIC_SystemReset+0x1c>)
 80114b6:	4b06      	ldr	r3, [pc, #24]	; (80114d0 <__NVIC_SystemReset+0x20>)
 80114b8:	68ca      	ldr	r2, [r1, #12]
 80114ba:	f402 62e0 	and.w	r2, r2, #1792	; 0x700
 80114be:	4313      	orrs	r3, r2
 80114c0:	60cb      	str	r3, [r1, #12]
 80114c2:	f3bf 8f4f 	dsb	sy
 80114c6:	bf00      	nop
 80114c8:	e7fd      	b.n	80114c6 <__NVIC_SystemReset+0x16>
 80114ca:	bf00      	nop
 80114cc:	e000ed00 	.word	0xe000ed00
 80114d0:	05fa0004 	.word	0x05fa0004

080114d4 <OTAS_STM_Notification>:
 80114d4:	e92d 4df3 	stmdb	sp!, {r0, r1, r4, r5, r6, r7, r8, sl, fp, lr}
 80114d8:	7903      	ldrb	r3, [r0, #4]
 80114da:	2b01      	cmp	r3, #1
 80114dc:	4604      	mov	r4, r0
 80114de:	d02a      	beq.n	8011536 <OTAS_STM_Notification+0x62>
 80114e0:	2b03      	cmp	r3, #3
 80114e2:	d066      	beq.n	80115b2 <OTAS_STM_Notification+0xde>
 80114e4:	b9a3      	cbnz	r3, 8011510 <OTAS_STM_Notification+0x3c>
 80114e6:	6802      	ldr	r2, [r0, #0]
 80114e8:	7812      	ldrb	r2, [r2, #0]
 80114ea:	2a02      	cmp	r2, #2
 80114ec:	d013      	beq.n	8011516 <OTAS_STM_Notification+0x42>
 80114ee:	2a07      	cmp	r2, #7
 80114f0:	d018      	beq.n	8011524 <OTAS_STM_Notification+0x50>
 80114f2:	2a01      	cmp	r2, #1
 80114f4:	d10c      	bne.n	8011510 <OTAS_STM_Notification+0x3c>
 80114f6:	4a45      	ldr	r2, [pc, #276]	; (801160c <OTAS_STM_Notification+0x138>)
 80114f8:	4845      	ldr	r0, [pc, #276]	; (8011610 <OTAS_STM_Notification+0x13c>)
 80114fa:	8213      	strh	r3, [r2, #16]
 80114fc:	6010      	str	r0, [r2, #0]
 80114fe:	4945      	ldr	r1, [pc, #276]	; (8011614 <OTAS_STM_Notification+0x140>)
 8011500:	1a09      	subs	r1, r1, r0
 8011502:	f3c1 310b 	ubfx	r1, r1, #12, #12
 8011506:	3101      	adds	r1, #1
 8011508:	f3c0 300b 	ubfx	r0, r0, #12, #12
 801150c:	f7ff f9a8 	bl	8010860 <FD_EraseSectors>
 8011510:	b002      	add	sp, #8
 8011512:	e8bd 8df0 	ldmia.w	sp!, {r4, r5, r6, r7, r8, sl, fp, pc}
 8011516:	4b3d      	ldr	r3, [pc, #244]	; (801160c <OTAS_STM_Notification+0x138>)
 8011518:	483d      	ldr	r0, [pc, #244]	; (8011610 <OTAS_STM_Notification+0x13c>)
 801151a:	6018      	str	r0, [r3, #0]
 801151c:	f44f 7280 	mov.w	r2, #256	; 0x100
 8011520:	821a      	strh	r2, [r3, #16]
 8011522:	e7ec      	b.n	80114fe <OTAS_STM_Notification+0x2a>
 8011524:	2301      	movs	r3, #1
 8011526:	f10d 0107 	add.w	r1, sp, #7
 801152a:	2002      	movs	r0, #2
 801152c:	f88d 3007 	strb.w	r3, [sp, #7]
 8011530:	f001 fc14 	bl	8012d5c <OTAS_STM_UpdateChar>
 8011534:	e7ec      	b.n	8011510 <OTAS_STM_Notification+0x3c>
 8011536:	4e35      	ldr	r6, [pc, #212]	; (801160c <OTAS_STM_Notification+0x138>)
 8011538:	7945      	ldrb	r5, [r0, #5]
 801153a:	f04f 0a00 	mov.w	sl, #0
 801153e:	46b0      	mov	r8, r6
 8011540:	f106 0708 	add.w	r7, r6, #8
 8011544:	7c30      	ldrb	r0, [r6, #16]
 8011546:	f1c0 0208 	rsb	r2, r0, #8
 801154a:	42aa      	cmp	r2, r5
 801154c:	d90c      	bls.n	8011568 <OTAS_STM_Notification+0x94>
 801154e:	2d00      	cmp	r5, #0
 8011550:	d0de      	beq.n	8011510 <OTAS_STM_Notification+0x3c>
 8011552:	4b31      	ldr	r3, [pc, #196]	; (8011618 <OTAS_STM_Notification+0x144>)
 8011554:	6821      	ldr	r1, [r4, #0]
 8011556:	462a      	mov	r2, r5
 8011558:	4418      	add	r0, r3
 801155a:	4451      	add	r1, sl
 801155c:	f002 fc52 	bl	8013e04 <memcpy>
 8011560:	7c33      	ldrb	r3, [r6, #16]
 8011562:	441d      	add	r5, r3
 8011564:	7435      	strb	r5, [r6, #16]
 8011566:	e7d3      	b.n	8011510 <OTAS_STM_Notification+0x3c>
 8011568:	6821      	ldr	r1, [r4, #0]
 801156a:	4438      	add	r0, r7
 801156c:	4451      	add	r1, sl
 801156e:	f002 fc49 	bl	8013e04 <memcpy>
 8011572:	f8d8 0000 	ldr.w	r0, [r8]
 8011576:	2201      	movs	r2, #1
 8011578:	4639      	mov	r1, r7
 801157a:	f7ff f9a3 	bl	80108c4 <FD_WriteData>
 801157e:	2800      	cmp	r0, #0
 8011580:	d1f7      	bne.n	8011572 <OTAS_STM_Notification+0x9e>
 8011582:	f8d8 1000 	ldr.w	r1, [r8]
 8011586:	e9d8 2302 	ldrd	r2, r3, [r8, #8]
 801158a:	e9d1 bc00 	ldrd	fp, ip, [r1]
 801158e:	459c      	cmp	ip, r3
 8011590:	bf08      	it	eq
 8011592:	4593      	cmpeq	fp, r2
 8011594:	d1d6      	bne.n	8011544 <OTAS_STM_Notification+0x70>
 8011596:	f898 3010 	ldrb.w	r3, [r8, #16]
 801159a:	f888 0010 	strb.w	r0, [r8, #16]
 801159e:	f1a3 0208 	sub.w	r2, r3, #8
 80115a2:	3108      	adds	r1, #8
 80115a4:	f1c3 0308 	rsb	r3, r3, #8
 80115a8:	f8c8 1000 	str.w	r1, [r8]
 80115ac:	4415      	add	r5, r2
 80115ae:	449a      	add	sl, r3
 80115b0:	e7c8      	b.n	8011544 <OTAS_STM_Notification+0x70>
 80115b2:	4c16      	ldr	r4, [pc, #88]	; (801160c <OTAS_STM_Notification+0x138>)
 80115b4:	7c20      	ldrb	r0, [r4, #16]
 80115b6:	b958      	cbnz	r0, 80115d0 <OTAS_STM_Notification+0xfc>
 80115b8:	7c63      	ldrb	r3, [r4, #17]
 80115ba:	b313      	cbz	r3, 8011602 <OTAS_STM_Notification+0x12e>
 80115bc:	2b01      	cmp	r3, #1
 80115be:	d1a7      	bne.n	8011510 <OTAS_STM_Notification+0x3c>
 80115c0:	4b16      	ldr	r3, [pc, #88]	; (801161c <OTAS_STM_Notification+0x148>)
 80115c2:	2200      	movs	r2, #0
 80115c4:	701a      	strb	r2, [r3, #0]
 80115c6:	4a16      	ldr	r2, [pc, #88]	; (8011620 <OTAS_STM_Notification+0x14c>)
 80115c8:	f843 2c04 	str.w	r2, [r3, #-4]
 80115cc:	f7ff ff70 	bl	80114b0 <__NVIC_SystemReset>
 80115d0:	f104 0508 	add.w	r5, r4, #8
 80115d4:	f1c0 0208 	rsb	r2, r0, #8
 80115d8:	21ff      	movs	r1, #255	; 0xff
 80115da:	4428      	add	r0, r5
 80115dc:	f002 fc20 	bl	8013e20 <memset>
 80115e0:	6823      	ldr	r3, [r4, #0]
 80115e2:	e9d3 0100 	ldrd	r0, r1, [r3]
 80115e6:	e9d4 2302 	ldrd	r2, r3, [r4, #8]
 80115ea:	4299      	cmp	r1, r3
 80115ec:	bf08      	it	eq
 80115ee:	4290      	cmpeq	r0, r2
 80115f0:	d0e2      	beq.n	80115b8 <OTAS_STM_Notification+0xe4>
 80115f2:	6820      	ldr	r0, [r4, #0]
 80115f4:	2201      	movs	r2, #1
 80115f6:	4629      	mov	r1, r5
 80115f8:	f7ff f964 	bl	80108c4 <FD_WriteData>
 80115fc:	2800      	cmp	r0, #0
 80115fe:	d1f8      	bne.n	80115f2 <OTAS_STM_Notification+0x11e>
 8011600:	e7ee      	b.n	80115e0 <OTAS_STM_Notification+0x10c>
 8011602:	4b08      	ldr	r3, [pc, #32]	; (8011624 <OTAS_STM_Notification+0x150>)
 8011604:	4a08      	ldr	r2, [pc, #32]	; (8011628 <OTAS_STM_Notification+0x154>)
 8011606:	601a      	str	r2, [r3, #0]
 8011608:	e7e0      	b.n	80115cc <OTAS_STM_Notification+0xf8>
 801160a:	bf00      	nop
 801160c:	200023d8 	.word	0x200023d8
 8011610:	0804c000 	.word	0x0804c000
 8011614:	0807ffff 	.word	0x0807ffff
 8011618:	200023e0 	.word	0x200023e0
 801161c:	20001004 	.word	0x20001004
 8011620:	01234567 	.word	0x01234567
 8011624:	20001000 	.word	0x20001000
 8011628:	abcdef01 	.word	0xabcdef01

0801162c <HW_IPCC_Enable>:
 801162c:	f04f 43b0 	mov.w	r3, #1476395008	; 0x58000000
 8011630:	b082      	sub	sp, #8
 8011632:	f8d3 2150 	ldr.w	r2, [r3, #336]	; 0x150
 8011636:	f442 1280 	orr.w	r2, r2, #1048576	; 0x100000
 801163a:	f8c3 2150 	str.w	r2, [r3, #336]	; 0x150
 801163e:	f8d3 3150 	ldr.w	r3, [r3, #336]	; 0x150
 8011642:	f403 1380 	and.w	r3, r3, #1048576	; 0x100000
 8011646:	9301      	str	r3, [sp, #4]
 8011648:	9b01      	ldr	r3, [sp, #4]
 801164a:	4b0a      	ldr	r3, [pc, #40]	; (8011674 <HW_IPCC_Enable+0x48>)
 801164c:	f8d3 20d4 	ldr.w	r2, [r3, #212]	; 0xd4
 8011650:	f442 7200 	orr.w	r2, r2, #512	; 0x200
 8011654:	f8c3 20d4 	str.w	r2, [r3, #212]	; 0xd4
 8011658:	6a1a      	ldr	r2, [r3, #32]
 801165a:	f442 7200 	orr.w	r2, r2, #512	; 0x200
 801165e:	621a      	str	r2, [r3, #32]
 8011660:	bf40      	sev
 8011662:	bf20      	wfe
 8011664:	4a04      	ldr	r2, [pc, #16]	; (8011678 <HW_IPCC_Enable+0x4c>)
 8011666:	68d3      	ldr	r3, [r2, #12]
 8011668:	f443 4300 	orr.w	r3, r3, #32768	; 0x8000
 801166c:	60d3      	str	r3, [r2, #12]
 801166e:	b002      	add	sp, #8
 8011670:	4770      	bx	lr
 8011672:	bf00      	nop
 8011674:	58000800 	.word	0x58000800
 8011678:	58000400 	.word	0x58000400

0801167c <HW_IPCC_Init>:
 801167c:	f04f 43b0 	mov.w	r3, #1476395008	; 0x58000000
 8011680:	b507      	push	{r0, r1, r2, lr}
 8011682:	6d1a      	ldr	r2, [r3, #80]	; 0x50
 8011684:	f442 1280 	orr.w	r2, r2, #1048576	; 0x100000
 8011688:	651a      	str	r2, [r3, #80]	; 0x50
 801168a:	6d1b      	ldr	r3, [r3, #80]	; 0x50
 801168c:	f403 1380 	and.w	r3, r3, #1048576	; 0x100000
 8011690:	9301      	str	r3, [sp, #4]
 8011692:	9b01      	ldr	r3, [sp, #4]
 8011694:	4b08      	ldr	r3, [pc, #32]	; (80116b8 <HW_IPCC_Init+0x3c>)
 8011696:	681a      	ldr	r2, [r3, #0]
 8011698:	f042 0201 	orr.w	r2, r2, #1
 801169c:	601a      	str	r2, [r3, #0]
 801169e:	681a      	ldr	r2, [r3, #0]
 80116a0:	f442 3280 	orr.w	r2, r2, #65536	; 0x10000
 80116a4:	601a      	str	r2, [r3, #0]
 80116a6:	202c      	movs	r0, #44	; 0x2c
 80116a8:	f000 fa88 	bl	8011bbc <HAL_NVIC_EnableIRQ>
 80116ac:	202d      	movs	r0, #45	; 0x2d
 80116ae:	b003      	add	sp, #12
 80116b0:	f85d eb04 	ldr.w	lr, [sp], #4
 80116b4:	f000 ba82 	b.w	8011bbc <HAL_NVIC_EnableIRQ>
 80116b8:	58000c00 	.word	0x58000c00

080116bc <HW_IPCC_BLE_Init>:
 80116bc:	4a02      	ldr	r2, [pc, #8]	; (80116c8 <HW_IPCC_BLE_Init+0xc>)
 80116be:	6853      	ldr	r3, [r2, #4]
 80116c0:	f023 0301 	bic.w	r3, r3, #1
 80116c4:	6053      	str	r3, [r2, #4]
 80116c6:	4770      	bx	lr
 80116c8:	58000c00 	.word	0x58000c00

080116cc <HW_IPCC_BLE_SendCmd>:
 80116cc:	4b02      	ldr	r3, [pc, #8]	; (80116d8 <HW_IPCC_BLE_SendCmd+0xc>)
 80116ce:	f44f 3280 	mov.w	r2, #65536	; 0x10000
 80116d2:	609a      	str	r2, [r3, #8]
 80116d4:	4770      	bx	lr
 80116d6:	bf00      	nop
 80116d8:	58000c00 	.word	0x58000c00

080116dc <HW_IPCC_SYS_Init>:
 80116dc:	4a02      	ldr	r2, [pc, #8]	; (80116e8 <HW_IPCC_SYS_Init+0xc>)
 80116de:	6853      	ldr	r3, [r2, #4]
 80116e0:	f023 0302 	bic.w	r3, r3, #2
 80116e4:	6053      	str	r3, [r2, #4]
 80116e6:	4770      	bx	lr
 80116e8:	58000c00 	.word	0x58000c00

080116ec <HW_IPCC_SYS_SendCmd>:
 80116ec:	4b04      	ldr	r3, [pc, #16]	; (8011700 <HW_IPCC_SYS_SendCmd+0x14>)
 80116ee:	f44f 3200 	mov.w	r2, #131072	; 0x20000
 80116f2:	609a      	str	r2, [r3, #8]
 80116f4:	685a      	ldr	r2, [r3, #4]
 80116f6:	f422 3200 	bic.w	r2, r2, #131072	; 0x20000
 80116fa:	605a      	str	r2, [r3, #4]
 80116fc:	4770      	bx	lr
 80116fe:	bf00      	nop
 8011700:	58000c00 	.word	0x58000c00

08011704 <HW_IPCC_Tx_Handler>:
 8011704:	4b1e      	ldr	r3, [pc, #120]	; (8011780 <HW_IPCC_Tx_Handler+0x7c>)
 8011706:	68da      	ldr	r2, [r3, #12]
 8011708:	f012 0f02 	tst.w	r2, #2
 801170c:	b510      	push	{r4, lr}
 801170e:	461a      	mov	r2, r3
 8011710:	d109      	bne.n	8011726 <HW_IPCC_Tx_Handler+0x22>
 8011712:	6859      	ldr	r1, [r3, #4]
 8011714:	0389      	lsls	r1, r1, #14
 8011716:	d406      	bmi.n	8011726 <HW_IPCC_Tx_Handler+0x22>
 8011718:	685a      	ldr	r2, [r3, #4]
 801171a:	f442 3200 	orr.w	r2, r2, #131072	; 0x20000
 801171e:	605a      	str	r2, [r3, #4]
 8011720:	f002 f924 	bl	801396c <HW_IPCC_SYS_CmdEvtNot>
 8011724:	bd10      	pop	{r4, pc}
 8011726:	68d3      	ldr	r3, [r2, #12]
 8011728:	079b      	lsls	r3, r3, #30
 801172a:	d407      	bmi.n	801173c <HW_IPCC_Tx_Handler+0x38>
 801172c:	6853      	ldr	r3, [r2, #4]
 801172e:	039c      	lsls	r4, r3, #14
 8011730:	d404      	bmi.n	801173c <HW_IPCC_Tx_Handler+0x38>
 8011732:	6853      	ldr	r3, [r2, #4]
 8011734:	f443 3300 	orr.w	r3, r3, #131072	; 0x20000
 8011738:	6053      	str	r3, [r2, #4]
 801173a:	e7f1      	b.n	8011720 <HW_IPCC_Tx_Handler+0x1c>
 801173c:	4c10      	ldr	r4, [pc, #64]	; (8011780 <HW_IPCC_Tx_Handler+0x7c>)
 801173e:	68e3      	ldr	r3, [r4, #12]
 8011740:	f013 0f08 	tst.w	r3, #8
 8011744:	4623      	mov	r3, r4
 8011746:	d10d      	bne.n	8011764 <HW_IPCC_Tx_Handler+0x60>
 8011748:	6862      	ldr	r2, [r4, #4]
 801174a:	0310      	lsls	r0, r2, #12
 801174c:	d40a      	bmi.n	8011764 <HW_IPCC_Tx_Handler+0x60>
 801174e:	6863      	ldr	r3, [r4, #4]
 8011750:	f443 2300 	orr.w	r3, r3, #524288	; 0x80000
 8011754:	6063      	str	r3, [r4, #4]
 8011756:	4b0b      	ldr	r3, [pc, #44]	; (8011784 <HW_IPCC_Tx_Handler+0x80>)
 8011758:	681b      	ldr	r3, [r3, #0]
 801175a:	4798      	blx	r3
 801175c:	f44f 2300 	mov.w	r3, #524288	; 0x80000
 8011760:	60a3      	str	r3, [r4, #8]
 8011762:	e7df      	b.n	8011724 <HW_IPCC_Tx_Handler+0x20>
 8011764:	68da      	ldr	r2, [r3, #12]
 8011766:	0691      	lsls	r1, r2, #26
 8011768:	d4dc      	bmi.n	8011724 <HW_IPCC_Tx_Handler+0x20>
 801176a:	685a      	ldr	r2, [r3, #4]
 801176c:	0292      	lsls	r2, r2, #10
 801176e:	d4d9      	bmi.n	8011724 <HW_IPCC_Tx_Handler+0x20>
 8011770:	685a      	ldr	r2, [r3, #4]
 8011772:	f442 1200 	orr.w	r2, r2, #2097152	; 0x200000
 8011776:	605a      	str	r2, [r3, #4]
 8011778:	f002 f8c6 	bl	8013908 <HW_IPCC_BLE_AclDataAckNot>
 801177c:	e7d2      	b.n	8011724 <HW_IPCC_Tx_Handler+0x20>
 801177e:	bf00      	nop
 8011780:	58000c00 	.word	0x58000c00
 8011784:	20001284 	.word	0x20001284

08011788 <HW_IPCC_MM_SendFreeBuf>:
 8011788:	b510      	push	{r4, lr}
 801178a:	4c08      	ldr	r4, [pc, #32]	; (80117ac <HW_IPCC_MM_SendFreeBuf+0x24>)
 801178c:	68e3      	ldr	r3, [r4, #12]
 801178e:	071b      	lsls	r3, r3, #28
 8011790:	d506      	bpl.n	80117a0 <HW_IPCC_MM_SendFreeBuf+0x18>
 8011792:	4b07      	ldr	r3, [pc, #28]	; (80117b0 <HW_IPCC_MM_SendFreeBuf+0x28>)
 8011794:	6018      	str	r0, [r3, #0]
 8011796:	6863      	ldr	r3, [r4, #4]
 8011798:	f423 2300 	bic.w	r3, r3, #524288	; 0x80000
 801179c:	6063      	str	r3, [r4, #4]
 801179e:	bd10      	pop	{r4, pc}
 80117a0:	4780      	blx	r0
 80117a2:	f44f 2300 	mov.w	r3, #524288	; 0x80000
 80117a6:	60a3      	str	r3, [r4, #8]
 80117a8:	e7f9      	b.n	801179e <HW_IPCC_MM_SendFreeBuf+0x16>
 80117aa:	bf00      	nop
 80117ac:	58000c00 	.word	0x58000c00
 80117b0:	20001284 	.word	0x20001284

080117b4 <HW_IPCC_TRACES_Init>:
 80117b4:	4a02      	ldr	r2, [pc, #8]	; (80117c0 <HW_IPCC_TRACES_Init+0xc>)
 80117b6:	6853      	ldr	r3, [r2, #4]
 80117b8:	f023 0308 	bic.w	r3, r3, #8
 80117bc:	6053      	str	r3, [r2, #4]
 80117be:	4770      	bx	lr
 80117c0:	58000c00 	.word	0x58000c00

080117c4 <HW_IPCC_Rx_Handler>:
 80117c4:	b538      	push	{r3, r4, r5, lr}
 80117c6:	4c12      	ldr	r4, [pc, #72]	; (8011810 <HW_IPCC_Rx_Handler+0x4c>)
 80117c8:	69e3      	ldr	r3, [r4, #28]
 80117ca:	f013 0f02 	tst.w	r3, #2
 80117ce:	4625      	mov	r5, r4
 80117d0:	d007      	beq.n	80117e2 <HW_IPCC_Rx_Handler+0x1e>
 80117d2:	6863      	ldr	r3, [r4, #4]
 80117d4:	079b      	lsls	r3, r3, #30
 80117d6:	d404      	bmi.n	80117e2 <HW_IPCC_Rx_Handler+0x1e>
 80117d8:	f002 f8d4 	bl	8013984 <HW_IPCC_SYS_EvtNot>
 80117dc:	2302      	movs	r3, #2
 80117de:	60a3      	str	r3, [r4, #8]
 80117e0:	e009      	b.n	80117f6 <HW_IPCC_Rx_Handler+0x32>
 80117e2:	69eb      	ldr	r3, [r5, #28]
 80117e4:	07d8      	lsls	r0, r3, #31
 80117e6:	d507      	bpl.n	80117f8 <HW_IPCC_Rx_Handler+0x34>
 80117e8:	686b      	ldr	r3, [r5, #4]
 80117ea:	07d9      	lsls	r1, r3, #31
 80117ec:	d404      	bmi.n	80117f8 <HW_IPCC_Rx_Handler+0x34>
 80117ee:	f002 f875 	bl	80138dc <HW_IPCC_BLE_RxEvtNot>
 80117f2:	2301      	movs	r3, #1
 80117f4:	60ab      	str	r3, [r5, #8]
 80117f6:	bd38      	pop	{r3, r4, r5, pc}
 80117f8:	4c05      	ldr	r4, [pc, #20]	; (8011810 <HW_IPCC_Rx_Handler+0x4c>)
 80117fa:	69e3      	ldr	r3, [r4, #28]
 80117fc:	071a      	lsls	r2, r3, #28
 80117fe:	d5fa      	bpl.n	80117f6 <HW_IPCC_Rx_Handler+0x32>
 8011800:	6863      	ldr	r3, [r4, #4]
 8011802:	071b      	lsls	r3, r3, #28
 8011804:	d4f7      	bmi.n	80117f6 <HW_IPCC_Rx_Handler+0x32>
 8011806:	f002 f913 	bl	8013a30 <HW_IPCC_TRACES_EvtNot>
 801180a:	2308      	movs	r3, #8
 801180c:	e7e7      	b.n	80117de <HW_IPCC_Rx_Handler+0x1a>
 801180e:	bf00      	nop
 8011810:	58000c00 	.word	0x58000c00

08011814 <CopyDataInit>:
 8011814:	58d4      	ldr	r4, [r2, r3]
 8011816:	50c4      	str	r4, [r0, r3]
 8011818:	3304      	adds	r3, #4

0801181a <LoopCopyDataInit>:
 801181a:	18c4      	adds	r4, r0, r3
 801181c:	428c      	cmp	r4, r1
 801181e:	d3f9      	bcc.n	8011814 <CopyDataInit>
 8011820:	4770      	bx	lr

08011822 <FillZerobss>:
 8011822:	6003      	str	r3, [r0, #0]
 8011824:	3004      	adds	r0, #4

08011826 <LoopFillZerobss>:
 8011826:	4288      	cmp	r0, r1
 8011828:	d3fb      	bcc.n	8011822 <FillZerobss>
 801182a:	4770      	bx	lr

0801182c <Reset_Handler>:
 801182c:	480c      	ldr	r0, [pc, #48]	; (8011860 <LoopForever+0x4>)
 801182e:	4685      	mov	sp, r0
 8011830:	480c      	ldr	r0, [pc, #48]	; (8011864 <LoopForever+0x8>)
 8011832:	490d      	ldr	r1, [pc, #52]	; (8011868 <LoopForever+0xc>)
 8011834:	4a0d      	ldr	r2, [pc, #52]	; (801186c <LoopForever+0x10>)
 8011836:	2300      	movs	r3, #0
 8011838:	f7ff ffef 	bl	801181a <LoopCopyDataInit>
 801183c:	480c      	ldr	r0, [pc, #48]	; (8011870 <LoopForever+0x14>)
 801183e:	490d      	ldr	r1, [pc, #52]	; (8011874 <LoopForever+0x18>)
 8011840:	2300      	movs	r3, #0
 8011842:	f7ff fff0 	bl	8011826 <LoopFillZerobss>
 8011846:	480c      	ldr	r0, [pc, #48]	; (8011878 <LoopForever+0x1c>)
 8011848:	490c      	ldr	r1, [pc, #48]	; (801187c <LoopForever+0x20>)
 801184a:	2300      	movs	r3, #0
 801184c:	f7ff ffeb 	bl	8011826 <LoopFillZerobss>
 8011850:	f000 f8b2 	bl	80119b8 <SystemInit>
 8011854:	f002 fab2 	bl	8013dbc <__libc_init_array>
 8011858:	f7ff fc22 	bl	80110a0 <main>

0801185c <LoopForever>:
 801185c:	e7fe      	b.n	801185c <LoopForever>
 801185e:	0000      	.short	0x0000
 8011860:	20030000 	.word	0x20030000
 8011864:	20001010 	.word	0x20001010
 8011868:	2000104c 	.word	0x2000104c
 801186c:	08014134 	.word	0x08014134
 8011870:	20001140 	.word	0x20001140
 8011874:	200023f4 	.word	0x200023f4
 8011878:	200301e0 	.word	0x200301e0
 801187c:	20030a57 	.word	0x20030a57

08011880 <ADC1_IRQHandler>:
 8011880:	e7fe      	b.n	8011880 <ADC1_IRQHandler>

08011882 <LL_AHB2_GRP1_EnableClock>:
 8011882:	f04f 43b0 	mov.w	r3, #1476395008	; 0x58000000
 8011886:	b082      	sub	sp, #8
 8011888:	6cda      	ldr	r2, [r3, #76]	; 0x4c
 801188a:	4302      	orrs	r2, r0
 801188c:	64da      	str	r2, [r3, #76]	; 0x4c
 801188e:	6cdb      	ldr	r3, [r3, #76]	; 0x4c
 8011890:	4018      	ands	r0, r3
 8011892:	9001      	str	r0, [sp, #4]
 8011894:	9b01      	ldr	r3, [sp, #4]
 8011896:	b002      	add	sp, #8
 8011898:	4770      	bx	lr
	...

0801189c <BSP_LED_Init>:
 801189c:	b5f0      	push	{r4, r5, r6, r7, lr}
 801189e:	b087      	sub	sp, #28
 80118a0:	4604      	mov	r4, r0
 80118a2:	2214      	movs	r2, #20
 80118a4:	2100      	movs	r1, #0
 80118a6:	a801      	add	r0, sp, #4
 80118a8:	f002 faba 	bl	8013e20 <memset>
 80118ac:	2002      	movs	r0, #2
 80118ae:	f7ff ffe8 	bl	8011882 <LL_AHB2_GRP1_EnableClock>
 80118b2:	4b0c      	ldr	r3, [pc, #48]	; (80118e4 <BSP_LED_Init+0x48>)
 80118b4:	4d0c      	ldr	r5, [pc, #48]	; (80118e8 <BSP_LED_Init+0x4c>)
 80118b6:	f833 6014 	ldrh.w	r6, [r3, r4, lsl #1]
 80118ba:	f855 0024 	ldr.w	r0, [r5, r4, lsl #2]
 80118be:	9601      	str	r6, [sp, #4]
 80118c0:	2700      	movs	r7, #0
 80118c2:	2301      	movs	r3, #1
 80118c4:	e9cd 3702 	strd	r3, r7, [sp, #8]
 80118c8:	a901      	add	r1, sp, #4
 80118ca:	2302      	movs	r3, #2
 80118cc:	9304      	str	r3, [sp, #16]
 80118ce:	f000 fc13 	bl	80120f8 <HAL_GPIO_Init>
 80118d2:	f855 0024 	ldr.w	r0, [r5, r4, lsl #2]
 80118d6:	463a      	mov	r2, r7
 80118d8:	4631      	mov	r1, r6
 80118da:	f000 fcc3 	bl	8012264 <HAL_GPIO_WritePin>
 80118de:	b007      	add	sp, #28
 80118e0:	bdf0      	pop	{r4, r5, r6, r7, pc}
 80118e2:	bf00      	nop
 80118e4:	08014012 	.word	0x08014012
 80118e8:	2000102c 	.word	0x2000102c

080118ec <BSP_LED_On>:
 80118ec:	4b04      	ldr	r3, [pc, #16]	; (8011900 <BSP_LED_On+0x14>)
 80118ee:	f833 1010 	ldrh.w	r1, [r3, r0, lsl #1]
 80118f2:	4b04      	ldr	r3, [pc, #16]	; (8011904 <BSP_LED_On+0x18>)
 80118f4:	2201      	movs	r2, #1
 80118f6:	f853 0020 	ldr.w	r0, [r3, r0, lsl #2]
 80118fa:	f000 bcb3 	b.w	8012264 <HAL_GPIO_WritePin>
 80118fe:	bf00      	nop
 8011900:	08014012 	.word	0x08014012
 8011904:	2000102c 	.word	0x2000102c

08011908 <BSP_LED_Off>:
 8011908:	4b04      	ldr	r3, [pc, #16]	; (801191c <BSP_LED_Off+0x14>)
 801190a:	f833 1010 	ldrh.w	r1, [r3, r0, lsl #1]
 801190e:	4b04      	ldr	r3, [pc, #16]	; (8011920 <BSP_LED_Off+0x18>)
 8011910:	2200      	movs	r2, #0
 8011912:	f853 0020 	ldr.w	r0, [r3, r0, lsl #2]
 8011916:	f000 bca5 	b.w	8012264 <HAL_GPIO_WritePin>
 801191a:	bf00      	nop
 801191c:	08014012 	.word	0x08014012
 8011920:	2000102c 	.word	0x2000102c

08011924 <BSP_PB_Init>:
 8011924:	b530      	push	{r4, r5, lr}
 8011926:	b089      	sub	sp, #36	; 0x24
 8011928:	4604      	mov	r4, r0
 801192a:	460d      	mov	r5, r1
 801192c:	2214      	movs	r2, #20
 801192e:	2100      	movs	r1, #0
 8011930:	a803      	add	r0, sp, #12
 8011932:	f002 fa75 	bl	8013e20 <memset>
 8011936:	b9bc      	cbnz	r4, 8011968 <BSP_PB_Init+0x44>
 8011938:	2004      	movs	r0, #4
 801193a:	f7ff ffa2 	bl	8011882 <LL_AHB2_GRP1_EnableClock>
 801193e:	b9c5      	cbnz	r5, 8011972 <BSP_PB_Init+0x4e>
 8011940:	4b19      	ldr	r3, [pc, #100]	; (80119a8 <BSP_PB_Init+0x84>)
 8011942:	f833 3014 	ldrh.w	r3, [r3, r4, lsl #1]
 8011946:	e9cd 3503 	strd	r3, r5, [sp, #12]
 801194a:	2501      	movs	r5, #1
 801194c:	2302      	movs	r3, #2
 801194e:	e9cd 5305 	strd	r5, r3, [sp, #20]
 8011952:	4b16      	ldr	r3, [pc, #88]	; (80119ac <BSP_PB_Init+0x88>)
 8011954:	a903      	add	r1, sp, #12
 8011956:	f853 0024 	ldr.w	r0, [r3, r4, lsl #2]
 801195a:	f000 fbcd 	bl	80120f8 <HAL_GPIO_Init>
 801195e:	4628      	mov	r0, r5
 8011960:	f7ff fc38 	bl	80111d4 <HAL_Delay>
 8011964:	b009      	add	sp, #36	; 0x24
 8011966:	bd30      	pop	{r4, r5, pc}
 8011968:	1e63      	subs	r3, r4, #1
 801196a:	2b01      	cmp	r3, #1
 801196c:	d8e7      	bhi.n	801193e <BSP_PB_Init+0x1a>
 801196e:	2008      	movs	r0, #8
 8011970:	e7e3      	b.n	801193a <BSP_PB_Init+0x16>
 8011972:	2d01      	cmp	r5, #1
 8011974:	d1f6      	bne.n	8011964 <BSP_PB_Init+0x40>
 8011976:	4b0c      	ldr	r3, [pc, #48]	; (80119a8 <BSP_PB_Init+0x84>)
 8011978:	9505      	str	r5, [sp, #20]
 801197a:	f833 3014 	ldrh.w	r3, [r3, r4, lsl #1]
 801197e:	9303      	str	r3, [sp, #12]
 8011980:	4b0b      	ldr	r3, [pc, #44]	; (80119b0 <BSP_PB_Init+0x8c>)
 8011982:	9304      	str	r3, [sp, #16]
 8011984:	4b09      	ldr	r3, [pc, #36]	; (80119ac <BSP_PB_Init+0x88>)
 8011986:	a903      	add	r1, sp, #12
 8011988:	f853 0024 	ldr.w	r0, [r3, r4, lsl #2]
 801198c:	f000 fbb4 	bl	80120f8 <HAL_GPIO_Init>
 8011990:	4b08      	ldr	r3, [pc, #32]	; (80119b4 <BSP_PB_Init+0x90>)
 8011992:	2200      	movs	r2, #0
 8011994:	5718      	ldrsb	r0, [r3, r4]
 8011996:	9001      	str	r0, [sp, #4]
 8011998:	210f      	movs	r1, #15
 801199a:	f000 f8dd 	bl	8011b58 <HAL_NVIC_SetPriority>
 801199e:	9801      	ldr	r0, [sp, #4]
 80119a0:	f000 f90c 	bl	8011bbc <HAL_NVIC_EnableIRQ>
 80119a4:	e7de      	b.n	8011964 <BSP_PB_Init+0x40>
 80119a6:	bf00      	nop
 80119a8:	0801400c 	.word	0x0801400c
 80119ac:	20001020 	.word	0x20001020
 80119b0:	10210000 	.word	0x10210000
 80119b4:	08014009 	.word	0x08014009

080119b8 <SystemInit>:
 80119b8:	b508      	push	{r3, lr}
 80119ba:	4b28      	ldr	r3, [pc, #160]	; (8011a5c <SystemInit+0xa4>)
 80119bc:	4a28      	ldr	r2, [pc, #160]	; (8011a60 <SystemInit+0xa8>)
 80119be:	6819      	ldr	r1, [r3, #0]
 80119c0:	4291      	cmp	r1, r2
 80119c2:	bf04      	itt	eq
 80119c4:	2200      	moveq	r2, #0
 80119c6:	601a      	streq	r2, [r3, #0]
 80119c8:	4a26      	ldr	r2, [pc, #152]	; (8011a64 <SystemInit+0xac>)
 80119ca:	f8d2 3088 	ldr.w	r3, [r2, #136]	; 0x88
 80119ce:	f443 0370 	orr.w	r3, r3, #15728640	; 0xf00000
 80119d2:	f8c2 3088 	str.w	r3, [r2, #136]	; 0x88
 80119d6:	2000      	movs	r0, #0
 80119d8:	f002 f850 	bl	8013a7c <OTP_Read>
 80119dc:	b168      	cbz	r0, 80119fa <SystemInit+0x42>
 80119de:	f04f 42b0 	mov.w	r2, #1476395008	; 0x58000000
 80119e2:	4b21      	ldr	r3, [pc, #132]	; (8011a68 <SystemInit+0xb0>)
 80119e4:	7981      	ldrb	r1, [r0, #6]
 80119e6:	f8c2 309c 	str.w	r3, [r2, #156]	; 0x9c
 80119ea:	f8d2 309c 	ldr.w	r3, [r2, #156]	; 0x9c
 80119ee:	f423 537c 	bic.w	r3, r3, #16128	; 0x3f00
 80119f2:	ea43 2301 	orr.w	r3, r3, r1, lsl #8
 80119f6:	f8c2 309c 	str.w	r3, [r2, #156]	; 0x9c
 80119fa:	f04f 43b0 	mov.w	r3, #1476395008	; 0x58000000
 80119fe:	681a      	ldr	r2, [r3, #0]
 8011a00:	f442 3280 	orr.w	r2, r2, #65536	; 0x10000
 8011a04:	601a      	str	r2, [r3, #0]
 8011a06:	681a      	ldr	r2, [r3, #0]
 8011a08:	0392      	lsls	r2, r2, #14
 8011a0a:	d5fc      	bpl.n	8011a06 <SystemInit+0x4e>
 8011a0c:	689a      	ldr	r2, [r3, #8]
 8011a0e:	f022 0203 	bic.w	r2, r2, #3
 8011a12:	f042 0202 	orr.w	r2, r2, #2
 8011a16:	609a      	str	r2, [r3, #8]
 8011a18:	f04f 43b0 	mov.w	r3, #1476395008	; 0x58000000
 8011a1c:	689a      	ldr	r2, [r3, #8]
 8011a1e:	f002 020c 	and.w	r2, r2, #12
 8011a22:	2a08      	cmp	r2, #8
 8011a24:	d1fa      	bne.n	8011a1c <SystemInit+0x64>
 8011a26:	681a      	ldr	r2, [r3, #0]
 8011a28:	f022 7280 	bic.w	r2, r2, #16777216	; 0x1000000
 8011a2c:	601a      	str	r2, [r3, #0]
 8011a2e:	4b0f      	ldr	r3, [pc, #60]	; (8011a6c <SystemInit+0xb4>)
 8011a30:	681a      	ldr	r2, [r3, #0]
 8011a32:	f022 0207 	bic.w	r2, r2, #7
 8011a36:	f042 0201 	orr.w	r2, r2, #1
 8011a3a:	601a      	str	r2, [r3, #0]
 8011a3c:	681a      	ldr	r2, [r3, #0]
 8011a3e:	f002 0207 	and.w	r2, r2, #7
 8011a42:	2a01      	cmp	r2, #1
 8011a44:	d1fa      	bne.n	8011a3c <SystemInit+0x84>
 8011a46:	f04f 42b0 	mov.w	r2, #1476395008	; 0x58000000
 8011a4a:	6813      	ldr	r3, [r2, #0]
 8011a4c:	f023 0301 	bic.w	r3, r3, #1
 8011a50:	6013      	str	r3, [r2, #0]
 8011a52:	4b04      	ldr	r3, [pc, #16]	; (8011a64 <SystemInit+0xac>)
 8011a54:	4a06      	ldr	r2, [pc, #24]	; (8011a70 <SystemInit+0xb8>)
 8011a56:	609a      	str	r2, [r3, #8]
 8011a58:	bd08      	pop	{r3, pc}
 8011a5a:	bf00      	nop
 8011a5c:	20001000 	.word	0x20001000
 8011a60:	375aa32c 	.word	0x375aa32c
 8011a64:	e000ed00 	.word	0xe000ed00
 8011a68:	cafecafe 	.word	0xcafecafe
 8011a6c:	58004000 	.word	0x58004000
 8011a70:	08010000 	.word	0x08010000

08011a74 <HAL_MspInit>:
 8011a74:	4770      	bx	lr
	...

08011a78 <HAL_InitTick>:
 8011a78:	b538      	push	{r3, r4, r5, lr}
 8011a7a:	4c10      	ldr	r4, [pc, #64]	; (8011abc <HAL_InitTick+0x44>)
 8011a7c:	7823      	ldrb	r3, [r4, #0]
 8011a7e:	4605      	mov	r5, r0
 8011a80:	b90b      	cbnz	r3, 8011a86 <HAL_InitTick+0xe>
 8011a82:	2001      	movs	r0, #1
 8011a84:	bd38      	pop	{r3, r4, r5, pc}
 8011a86:	f000 fc97 	bl	80123b8 <HAL_RCC_GetHCLKFreq>
 8011a8a:	7822      	ldrb	r2, [r4, #0]
 8011a8c:	f44f 737a 	mov.w	r3, #1000	; 0x3e8
 8011a90:	fbb3 f3f2 	udiv	r3, r3, r2
 8011a94:	fbb0 f0f3 	udiv	r0, r0, r3
 8011a98:	f000 f8b2 	bl	8011c00 <HAL_SYSTICK_Config>
 8011a9c:	4604      	mov	r4, r0
 8011a9e:	2800      	cmp	r0, #0
 8011aa0:	d1ef      	bne.n	8011a82 <HAL_InitTick+0xa>
 8011aa2:	2d0f      	cmp	r5, #15
 8011aa4:	d8ed      	bhi.n	8011a82 <HAL_InitTick+0xa>
 8011aa6:	4602      	mov	r2, r0
 8011aa8:	4629      	mov	r1, r5
 8011aaa:	f04f 30ff 	mov.w	r0, #4294967295	; 0xffffffff
 8011aae:	f000 f853 	bl	8011b58 <HAL_NVIC_SetPriority>
 8011ab2:	4b03      	ldr	r3, [pc, #12]	; (8011ac0 <HAL_InitTick+0x48>)
 8011ab4:	4620      	mov	r0, r4
 8011ab6:	601d      	str	r5, [r3, #0]
 8011ab8:	e7e4      	b.n	8011a84 <HAL_InitTick+0xc>
 8011aba:	bf00      	nop
 8011abc:	2000103c 	.word	0x2000103c
 8011ac0:	20001040 	.word	0x20001040

08011ac4 <HAL_Init>:
 8011ac4:	b510      	push	{r4, lr}
 8011ac6:	2003      	movs	r0, #3
 8011ac8:	f000 f834 	bl	8011b34 <HAL_NVIC_SetPriorityGrouping>
 8011acc:	200f      	movs	r0, #15
 8011ace:	f7ff ffd3 	bl	8011a78 <HAL_InitTick>
 8011ad2:	4604      	mov	r4, r0
 8011ad4:	b918      	cbnz	r0, 8011ade <HAL_Init+0x1a>
 8011ad6:	f7ff ffcd 	bl	8011a74 <HAL_MspInit>
 8011ada:	4620      	mov	r0, r4
 8011adc:	bd10      	pop	{r4, pc}
 8011ade:	2401      	movs	r4, #1
 8011ae0:	e7fb      	b.n	8011ada <HAL_Init+0x16>
	...

08011ae4 <HAL_IncTick>:
 8011ae4:	4a03      	ldr	r2, [pc, #12]	; (8011af4 <HAL_IncTick+0x10>)
 8011ae6:	4b04      	ldr	r3, [pc, #16]	; (8011af8 <HAL_IncTick+0x14>)
 8011ae8:	6811      	ldr	r1, [r2, #0]
 8011aea:	781b      	ldrb	r3, [r3, #0]
 8011aec:	440b      	add	r3, r1
 8011aee:	6013      	str	r3, [r2, #0]
 8011af0:	4770      	bx	lr
 8011af2:	bf00      	nop
 8011af4:	200023f0 	.word	0x200023f0
 8011af8:	2000103c 	.word	0x2000103c

08011afc <HAL_GetTick>:
 8011afc:	4b01      	ldr	r3, [pc, #4]	; (8011b04 <HAL_GetTick+0x8>)
 8011afe:	6818      	ldr	r0, [r3, #0]
 8011b00:	4770      	bx	lr
 8011b02:	bf00      	nop
 8011b04:	200023f0 	.word	0x200023f0

08011b08 <HAL_GetTickFreq>:
 8011b08:	4b01      	ldr	r3, [pc, #4]	; (8011b10 <HAL_GetTickFreq+0x8>)
 8011b0a:	7818      	ldrb	r0, [r3, #0]
 8011b0c:	4770      	bx	lr
 8011b0e:	bf00      	nop
 8011b10:	2000103c 	.word	0x2000103c

08011b14 <HAL_DBGMCU_EnableDBGSleepMode>:
 8011b14:	4a02      	ldr	r2, [pc, #8]	; (8011b20 <HAL_DBGMCU_EnableDBGSleepMode+0xc>)
 8011b16:	6853      	ldr	r3, [r2, #4]
 8011b18:	f043 0301 	orr.w	r3, r3, #1
 8011b1c:	6053      	str	r3, [r2, #4]
 8011b1e:	4770      	bx	lr
 8011b20:	e0042000 	.word	0xe0042000

08011b24 <HAL_DBGMCU_EnableDBGStopMode>:
 8011b24:	4a02      	ldr	r2, [pc, #8]	; (8011b30 <HAL_DBGMCU_EnableDBGStopMode+0xc>)
 8011b26:	6853      	ldr	r3, [r2, #4]
 8011b28:	f043 0302 	orr.w	r3, r3, #2
 8011b2c:	6053      	str	r3, [r2, #4]
 8011b2e:	4770      	bx	lr
 8011b30:	e0042000 	.word	0xe0042000

08011b34 <HAL_NVIC_SetPriorityGrouping>:
 8011b34:	4907      	ldr	r1, [pc, #28]	; (8011b54 <HAL_NVIC_SetPriorityGrouping+0x20>)
 8011b36:	68ca      	ldr	r2, [r1, #12]
 8011b38:	f422 62e0 	bic.w	r2, r2, #1792	; 0x700
 8011b3c:	0203      	lsls	r3, r0, #8
 8011b3e:	0412      	lsls	r2, r2, #16
 8011b40:	f403 63e0 	and.w	r3, r3, #1792	; 0x700
 8011b44:	0c12      	lsrs	r2, r2, #16
 8011b46:	4313      	orrs	r3, r2
 8011b48:	f043 63bf 	orr.w	r3, r3, #100139008	; 0x5f80000
 8011b4c:	f443 3300 	orr.w	r3, r3, #131072	; 0x20000
 8011b50:	60cb      	str	r3, [r1, #12]
 8011b52:	4770      	bx	lr
 8011b54:	e000ed00 	.word	0xe000ed00

08011b58 <HAL_NVIC_SetPriority>:
 8011b58:	4b16      	ldr	r3, [pc, #88]	; (8011bb4 <HAL_NVIC_SetPriority+0x5c>)
 8011b5a:	b530      	push	{r4, r5, lr}
 8011b5c:	68dc      	ldr	r4, [r3, #12]
 8011b5e:	f3c4 2402 	ubfx	r4, r4, #8, #3
 8011b62:	f1c4 0507 	rsb	r5, r4, #7
 8011b66:	1d23      	adds	r3, r4, #4
 8011b68:	2d04      	cmp	r5, #4
 8011b6a:	bf28      	it	cs
 8011b6c:	2504      	movcs	r5, #4
 8011b6e:	2b06      	cmp	r3, #6
 8011b70:	f04f 33ff 	mov.w	r3, #4294967295	; 0xffffffff
 8011b74:	bf8c      	ite	hi
 8011b76:	3c03      	subhi	r4, #3
 8011b78:	2400      	movls	r4, #0
 8011b7a:	fa03 f505 	lsl.w	r5, r3, r5
 8011b7e:	ea21 0105 	bic.w	r1, r1, r5
 8011b82:	40a3      	lsls	r3, r4
 8011b84:	ea22 0203 	bic.w	r2, r2, r3
 8011b88:	40a1      	lsls	r1, r4
 8011b8a:	2800      	cmp	r0, #0
 8011b8c:	ea41 0302 	orr.w	r3, r1, r2
 8011b90:	bfac      	ite	ge
 8011b92:	f100 4060 	addge.w	r0, r0, #3758096384	; 0xe0000000
 8011b96:	4a08      	ldrlt	r2, [pc, #32]	; (8011bb8 <HAL_NVIC_SetPriority+0x60>)
 8011b98:	ea4f 1303 	mov.w	r3, r3, lsl #4
 8011b9c:	bfb8      	it	lt
 8011b9e:	f000 000f 	andlt.w	r0, r0, #15
 8011ba2:	b2db      	uxtb	r3, r3
 8011ba4:	bfaa      	itet	ge
 8011ba6:	f500 4061 	addge.w	r0, r0, #57600	; 0xe100
 8011baa:	5413      	strblt	r3, [r2, r0]
 8011bac:	f880 3300 	strbge.w	r3, [r0, #768]	; 0x300
 8011bb0:	bd30      	pop	{r4, r5, pc}
 8011bb2:	bf00      	nop
 8011bb4:	e000ed00 	.word	0xe000ed00
 8011bb8:	e000ed14 	.word	0xe000ed14

08011bbc <HAL_NVIC_EnableIRQ>:
 8011bbc:	2800      	cmp	r0, #0
 8011bbe:	db08      	blt.n	8011bd2 <HAL_NVIC_EnableIRQ+0x16>
 8011bc0:	0942      	lsrs	r2, r0, #5
 8011bc2:	2301      	movs	r3, #1
 8011bc4:	f000 001f 	and.w	r0, r0, #31
 8011bc8:	fa03 f000 	lsl.w	r0, r3, r0
 8011bcc:	4b01      	ldr	r3, [pc, #4]	; (8011bd4 <HAL_NVIC_EnableIRQ+0x18>)
 8011bce:	f843 0022 	str.w	r0, [r3, r2, lsl #2]
 8011bd2:	4770      	bx	lr
 8011bd4:	e000e100 	.word	0xe000e100

08011bd8 <HAL_NVIC_DisableIRQ>:
 8011bd8:	2800      	cmp	r0, #0
 8011bda:	db0d      	blt.n	8011bf8 <HAL_NVIC_DisableIRQ+0x20>
 8011bdc:	0943      	lsrs	r3, r0, #5
 8011bde:	2201      	movs	r2, #1
 8011be0:	f000 001f 	and.w	r0, r0, #31
 8011be4:	fa02 f000 	lsl.w	r0, r2, r0
 8011be8:	3320      	adds	r3, #32
 8011bea:	4a04      	ldr	r2, [pc, #16]	; (8011bfc <HAL_NVIC_DisableIRQ+0x24>)
 8011bec:	f842 0023 	str.w	r0, [r2, r3, lsl #2]
 8011bf0:	f3bf 8f4f 	dsb	sy
 8011bf4:	f3bf 8f6f 	isb	sy
 8011bf8:	4770      	bx	lr
 8011bfa:	bf00      	nop
 8011bfc:	e000e100 	.word	0xe000e100

08011c00 <HAL_SYSTICK_Config>:
 8011c00:	3801      	subs	r0, #1
 8011c02:	f1b0 7f80 	cmp.w	r0, #16777216	; 0x1000000
 8011c06:	d20a      	bcs.n	8011c1e <HAL_SYSTICK_Config+0x1e>
 8011c08:	4b06      	ldr	r3, [pc, #24]	; (8011c24 <HAL_SYSTICK_Config+0x24>)
 8011c0a:	4a07      	ldr	r2, [pc, #28]	; (8011c28 <HAL_SYSTICK_Config+0x28>)
 8011c0c:	6058      	str	r0, [r3, #4]
 8011c0e:	21f0      	movs	r1, #240	; 0xf0
 8011c10:	f882 1023 	strb.w	r1, [r2, #35]	; 0x23
 8011c14:	2000      	movs	r0, #0
 8011c16:	2207      	movs	r2, #7
 8011c18:	6098      	str	r0, [r3, #8]
 8011c1a:	601a      	str	r2, [r3, #0]
 8011c1c:	4770      	bx	lr
 8011c1e:	2001      	movs	r0, #1
 8011c20:	4770      	bx	lr
 8011c22:	bf00      	nop
 8011c24:	e000e010 	.word	0xe000e010
 8011c28:	e000ed00 	.word	0xe000ed00

08011c2c <HAL_NVIC_SetPendingIRQ>:
 8011c2c:	2800      	cmp	r0, #0
 8011c2e:	db09      	blt.n	8011c44 <HAL_NVIC_SetPendingIRQ+0x18>
 8011c30:	0943      	lsrs	r3, r0, #5
 8011c32:	2201      	movs	r2, #1
 8011c34:	f000 001f 	and.w	r0, r0, #31
 8011c38:	fa02 f000 	lsl.w	r0, r2, r0
 8011c3c:	3340      	adds	r3, #64	; 0x40
 8011c3e:	4a02      	ldr	r2, [pc, #8]	; (8011c48 <HAL_NVIC_SetPendingIRQ+0x1c>)
 8011c40:	f842 0023 	str.w	r0, [r2, r3, lsl #2]
 8011c44:	4770      	bx	lr
 8011c46:	bf00      	nop
 8011c48:	e000e100 	.word	0xe000e100

08011c4c <HAL_NVIC_ClearPendingIRQ>:
 8011c4c:	2800      	cmp	r0, #0
 8011c4e:	db09      	blt.n	8011c64 <HAL_NVIC_ClearPendingIRQ+0x18>
 8011c50:	0943      	lsrs	r3, r0, #5
 8011c52:	2201      	movs	r2, #1
 8011c54:	f000 001f 	and.w	r0, r0, #31
 8011c58:	fa02 f000 	lsl.w	r0, r2, r0
 8011c5c:	3360      	adds	r3, #96	; 0x60
 8011c5e:	4a02      	ldr	r2, [pc, #8]	; (8011c68 <HAL_NVIC_ClearPendingIRQ+0x1c>)
 8011c60:	f842 0023 	str.w	r0, [r2, r3, lsl #2]
 8011c64:	4770      	bx	lr
 8011c66:	bf00      	nop
 8011c68:	e000e100 	.word	0xe000e100

08011c6c <DMA_CalcDMAMUXChannelBaseAndMask>:
 8011c6c:	4a0e      	ldr	r2, [pc, #56]	; (8011ca8 <DMA_CalcDMAMUXChannelBaseAndMask+0x3c>)
 8011c6e:	6803      	ldr	r3, [r0, #0]
 8011c70:	6c41      	ldr	r1, [r0, #68]	; 0x44
 8011c72:	4293      	cmp	r3, r2
 8011c74:	bf88      	it	hi
 8011c76:	4a0d      	ldrhi	r2, [pc, #52]	; (8011cac <DMA_CalcDMAMUXChannelBaseAndMask+0x40>)
 8011c78:	f021 0103 	bic.w	r1, r1, #3
 8011c7c:	bf9a      	itte	ls
 8011c7e:	f101 4280 	addls.w	r2, r1, #1073741824	; 0x40000000
 8011c82:	f502 3202 	addls.w	r2, r2, #133120	; 0x20800
 8011c86:	1852      	addhi	r2, r2, r1
 8011c88:	6482      	str	r2, [r0, #72]	; 0x48
 8011c8a:	b2db      	uxtb	r3, r3
 8011c8c:	4a08      	ldr	r2, [pc, #32]	; (8011cb0 <DMA_CalcDMAMUXChannelBaseAndMask+0x44>)
 8011c8e:	64c2      	str	r2, [r0, #76]	; 0x4c
 8011c90:	3b08      	subs	r3, #8
 8011c92:	2214      	movs	r2, #20
 8011c94:	fbb3 f3f2 	udiv	r3, r3, r2
 8011c98:	2201      	movs	r2, #1
 8011c9a:	f003 031f 	and.w	r3, r3, #31
 8011c9e:	fa02 f303 	lsl.w	r3, r2, r3
 8011ca2:	6503      	str	r3, [r0, #80]	; 0x50
 8011ca4:	4770      	bx	lr
 8011ca6:	bf00      	nop
 8011ca8:	40020407 	.word	0x40020407
 8011cac:	4002081c 	.word	0x4002081c
 8011cb0:	40020880 	.word	0x40020880

08011cb4 <HAL_DMA_Init>:
 8011cb4:	b510      	push	{r4, lr}
 8011cb6:	2800      	cmp	r0, #0
 8011cb8:	d05e      	beq.n	8011d78 <HAL_DMA_Init+0xc4>
 8011cba:	6801      	ldr	r1, [r0, #0]
 8011cbc:	4b2f      	ldr	r3, [pc, #188]	; (8011d7c <HAL_DMA_Init+0xc8>)
 8011cbe:	4299      	cmp	r1, r3
 8011cc0:	f04f 0414 	mov.w	r4, #20
 8011cc4:	d84b      	bhi.n	8011d5e <HAL_DMA_Init+0xaa>
 8011cc6:	4a2e      	ldr	r2, [pc, #184]	; (8011d80 <HAL_DMA_Init+0xcc>)
 8011cc8:	440a      	add	r2, r1
 8011cca:	fbb2 f2f4 	udiv	r2, r2, r4
 8011cce:	0092      	lsls	r2, r2, #2
 8011cd0:	6442      	str	r2, [r0, #68]	; 0x44
 8011cd2:	f2a3 4307 	subw	r3, r3, #1031	; 0x407
 8011cd6:	6403      	str	r3, [r0, #64]	; 0x40
 8011cd8:	2302      	movs	r3, #2
 8011cda:	f880 3025 	strb.w	r3, [r0, #37]	; 0x25
 8011cde:	e9d0 3402 	ldrd	r3, r4, [r0, #8]
 8011ce2:	4323      	orrs	r3, r4
 8011ce4:	6904      	ldr	r4, [r0, #16]
 8011ce6:	680a      	ldr	r2, [r1, #0]
 8011ce8:	4323      	orrs	r3, r4
 8011cea:	6944      	ldr	r4, [r0, #20]
 8011cec:	4323      	orrs	r3, r4
 8011cee:	6984      	ldr	r4, [r0, #24]
 8011cf0:	4323      	orrs	r3, r4
 8011cf2:	69c4      	ldr	r4, [r0, #28]
 8011cf4:	4323      	orrs	r3, r4
 8011cf6:	6a04      	ldr	r4, [r0, #32]
 8011cf8:	f422 42ff 	bic.w	r2, r2, #32640	; 0x7f80
 8011cfc:	f022 0270 	bic.w	r2, r2, #112	; 0x70
 8011d00:	4323      	orrs	r3, r4
 8011d02:	4313      	orrs	r3, r2
 8011d04:	600b      	str	r3, [r1, #0]
 8011d06:	f7ff ffb1 	bl	8011c6c <DMA_CalcDMAMUXChannelBaseAndMask>
 8011d0a:	6883      	ldr	r3, [r0, #8]
 8011d0c:	6c81      	ldr	r1, [r0, #72]	; 0x48
 8011d0e:	f5b3 4f80 	cmp.w	r3, #16384	; 0x4000
 8011d12:	bf04      	itt	eq
 8011d14:	2300      	moveq	r3, #0
 8011d16:	6043      	streq	r3, [r0, #4]
 8011d18:	6842      	ldr	r2, [r0, #4]
 8011d1a:	f002 033f 	and.w	r3, r2, #63	; 0x3f
 8011d1e:	600b      	str	r3, [r1, #0]
 8011d20:	e9d0 1413 	ldrd	r1, r4, [r0, #76]	; 0x4c
 8011d24:	3a01      	subs	r2, #1
 8011d26:	2a03      	cmp	r2, #3
 8011d28:	604c      	str	r4, [r1, #4]
 8011d2a:	d820      	bhi.n	8011d6e <HAL_DMA_Init+0xba>
 8011d2c:	4a15      	ldr	r2, [pc, #84]	; (8011d84 <HAL_DMA_Init+0xd0>)
 8011d2e:	4c16      	ldr	r4, [pc, #88]	; (8011d88 <HAL_DMA_Init+0xd4>)
 8011d30:	6584      	str	r4, [r0, #88]	; 0x58
 8011d32:	441a      	add	r2, r3
 8011d34:	3b01      	subs	r3, #1
 8011d36:	0092      	lsls	r2, r2, #2
 8011d38:	2101      	movs	r1, #1
 8011d3a:	f003 0303 	and.w	r3, r3, #3
 8011d3e:	fa01 f303 	lsl.w	r3, r1, r3
 8011d42:	2100      	movs	r1, #0
 8011d44:	6542      	str	r2, [r0, #84]	; 0x54
 8011d46:	65c3      	str	r3, [r0, #92]	; 0x5c
 8011d48:	6011      	str	r1, [r2, #0]
 8011d4a:	6063      	str	r3, [r4, #4]
 8011d4c:	2300      	movs	r3, #0
 8011d4e:	2201      	movs	r2, #1
 8011d50:	63c3      	str	r3, [r0, #60]	; 0x3c
 8011d52:	f880 3024 	strb.w	r3, [r0, #36]	; 0x24
 8011d56:	f880 2025 	strb.w	r2, [r0, #37]	; 0x25
 8011d5a:	4618      	mov	r0, r3
 8011d5c:	bd10      	pop	{r4, pc}
 8011d5e:	4b0b      	ldr	r3, [pc, #44]	; (8011d8c <HAL_DMA_Init+0xd8>)
 8011d60:	440b      	add	r3, r1
 8011d62:	fbb3 f3f4 	udiv	r3, r3, r4
 8011d66:	009b      	lsls	r3, r3, #2
 8011d68:	6443      	str	r3, [r0, #68]	; 0x44
 8011d6a:	4b09      	ldr	r3, [pc, #36]	; (8011d90 <HAL_DMA_Init+0xdc>)
 8011d6c:	e7b3      	b.n	8011cd6 <HAL_DMA_Init+0x22>
 8011d6e:	2300      	movs	r3, #0
 8011d70:	e9c0 3315 	strd	r3, r3, [r0, #84]	; 0x54
 8011d74:	65c3      	str	r3, [r0, #92]	; 0x5c
 8011d76:	e7e9      	b.n	8011d4c <HAL_DMA_Init+0x98>
 8011d78:	2001      	movs	r0, #1
 8011d7a:	e7ef      	b.n	8011d5c <HAL_DMA_Init+0xa8>
 8011d7c:	40020407 	.word	0x40020407
 8011d80:	bffdfff8 	.word	0xbffdfff8
 8011d84:	1000823f 	.word	0x1000823f
 8011d88:	40020940 	.word	0x40020940
 8011d8c:	bffdfbf8 	.word	0xbffdfbf8
 8011d90:	40020400 	.word	0x40020400

08011d94 <HAL_DMA_Abort>:
 8011d94:	b140      	cbz	r0, 8011da8 <HAL_DMA_Abort+0x14>
 8011d96:	f890 3025 	ldrb.w	r3, [r0, #37]	; 0x25
 8011d9a:	2b02      	cmp	r3, #2
 8011d9c:	d006      	beq.n	8011dac <HAL_DMA_Abort+0x18>
 8011d9e:	2304      	movs	r3, #4
 8011da0:	63c3      	str	r3, [r0, #60]	; 0x3c
 8011da2:	2300      	movs	r3, #0
 8011da4:	f880 3024 	strb.w	r3, [r0, #36]	; 0x24
 8011da8:	2001      	movs	r0, #1
 8011daa:	4770      	bx	lr
 8011dac:	6803      	ldr	r3, [r0, #0]
 8011dae:	6c81      	ldr	r1, [r0, #72]	; 0x48
 8011db0:	681a      	ldr	r2, [r3, #0]
 8011db2:	f022 020e 	bic.w	r2, r2, #14
 8011db6:	601a      	str	r2, [r3, #0]
 8011db8:	680a      	ldr	r2, [r1, #0]
 8011dba:	f422 7280 	bic.w	r2, r2, #256	; 0x100
 8011dbe:	600a      	str	r2, [r1, #0]
 8011dc0:	681a      	ldr	r2, [r3, #0]
 8011dc2:	f022 0201 	bic.w	r2, r2, #1
 8011dc6:	601a      	str	r2, [r3, #0]
 8011dc8:	e9d0 1310 	ldrd	r1, r3, [r0, #64]	; 0x40
 8011dcc:	f003 021c 	and.w	r2, r3, #28
 8011dd0:	2301      	movs	r3, #1
 8011dd2:	4093      	lsls	r3, r2
 8011dd4:	604b      	str	r3, [r1, #4]
 8011dd6:	e9d0 3213 	ldrd	r3, r2, [r0, #76]	; 0x4c
 8011dda:	605a      	str	r2, [r3, #4]
 8011ddc:	6d43      	ldr	r3, [r0, #84]	; 0x54
 8011dde:	b133      	cbz	r3, 8011dee <HAL_DMA_Abort+0x5a>
 8011de0:	681a      	ldr	r2, [r3, #0]
 8011de2:	f422 7280 	bic.w	r2, r2, #256	; 0x100
 8011de6:	601a      	str	r2, [r3, #0]
 8011de8:	e9d0 3216 	ldrd	r3, r2, [r0, #88]	; 0x58
 8011dec:	605a      	str	r2, [r3, #4]
 8011dee:	2301      	movs	r3, #1
 8011df0:	f880 3025 	strb.w	r3, [r0, #37]	; 0x25
 8011df4:	2300      	movs	r3, #0
 8011df6:	f880 3024 	strb.w	r3, [r0, #36]	; 0x24
 8011dfa:	4618      	mov	r0, r3
 8011dfc:	4770      	bx	lr

08011dfe <HAL_DMA_Abort_IT>:
 8011dfe:	b510      	push	{r4, lr}
 8011e00:	f890 3025 	ldrb.w	r3, [r0, #37]	; 0x25
 8011e04:	2b02      	cmp	r3, #2
 8011e06:	d003      	beq.n	8011e10 <HAL_DMA_Abort_IT+0x12>
 8011e08:	2304      	movs	r3, #4
 8011e0a:	63c3      	str	r3, [r0, #60]	; 0x3c
 8011e0c:	2001      	movs	r0, #1
 8011e0e:	bd10      	pop	{r4, pc}
 8011e10:	6803      	ldr	r3, [r0, #0]
 8011e12:	681a      	ldr	r2, [r3, #0]
 8011e14:	f022 020e 	bic.w	r2, r2, #14
 8011e18:	601a      	str	r2, [r3, #0]
 8011e1a:	681a      	ldr	r2, [r3, #0]
 8011e1c:	f022 0201 	bic.w	r2, r2, #1
 8011e20:	601a      	str	r2, [r3, #0]
 8011e22:	6c82      	ldr	r2, [r0, #72]	; 0x48
 8011e24:	6813      	ldr	r3, [r2, #0]
 8011e26:	f423 7380 	bic.w	r3, r3, #256	; 0x100
 8011e2a:	6013      	str	r3, [r2, #0]
 8011e2c:	e9d0 1310 	ldrd	r1, r3, [r0, #64]	; 0x40
 8011e30:	f003 021c 	and.w	r2, r3, #28
 8011e34:	2301      	movs	r3, #1
 8011e36:	4093      	lsls	r3, r2
 8011e38:	604b      	str	r3, [r1, #4]
 8011e3a:	e9d0 3213 	ldrd	r3, r2, [r0, #76]	; 0x4c
 8011e3e:	605a      	str	r2, [r3, #4]
 8011e40:	6d43      	ldr	r3, [r0, #84]	; 0x54
 8011e42:	b133      	cbz	r3, 8011e52 <HAL_DMA_Abort_IT+0x54>
 8011e44:	681a      	ldr	r2, [r3, #0]
 8011e46:	f422 7280 	bic.w	r2, r2, #256	; 0x100
 8011e4a:	601a      	str	r2, [r3, #0]
 8011e4c:	e9d0 3216 	ldrd	r3, r2, [r0, #88]	; 0x58
 8011e50:	605a      	str	r2, [r3, #4]
 8011e52:	2301      	movs	r3, #1
 8011e54:	f880 3025 	strb.w	r3, [r0, #37]	; 0x25
 8011e58:	6b83      	ldr	r3, [r0, #56]	; 0x38
 8011e5a:	2400      	movs	r4, #0
 8011e5c:	f880 4024 	strb.w	r4, [r0, #36]	; 0x24
 8011e60:	b113      	cbz	r3, 8011e68 <HAL_DMA_Abort_IT+0x6a>
 8011e62:	4798      	blx	r3
 8011e64:	4620      	mov	r0, r4
 8011e66:	e7d2      	b.n	8011e0e <HAL_DMA_Abort_IT+0x10>
 8011e68:	4618      	mov	r0, r3
 8011e6a:	e7d0      	b.n	8011e0e <HAL_DMA_Abort_IT+0x10>

08011e6c <HAL_DMA_IRQHandler>:
 8011e6c:	6c01      	ldr	r1, [r0, #64]	; 0x40
 8011e6e:	6c42      	ldr	r2, [r0, #68]	; 0x44
 8011e70:	6803      	ldr	r3, [r0, #0]
 8011e72:	b470      	push	{r4, r5, r6}
 8011e74:	f002 021c 	and.w	r2, r2, #28
 8011e78:	680e      	ldr	r6, [r1, #0]
 8011e7a:	681d      	ldr	r5, [r3, #0]
 8011e7c:	2404      	movs	r4, #4
 8011e7e:	4094      	lsls	r4, r2
 8011e80:	4234      	tst	r4, r6
 8011e82:	d00e      	beq.n	8011ea2 <HAL_DMA_IRQHandler+0x36>
 8011e84:	f015 0f04 	tst.w	r5, #4
 8011e88:	d00b      	beq.n	8011ea2 <HAL_DMA_IRQHandler+0x36>
 8011e8a:	681a      	ldr	r2, [r3, #0]
 8011e8c:	0692      	lsls	r2, r2, #26
 8011e8e:	bf5e      	ittt	pl
 8011e90:	681a      	ldrpl	r2, [r3, #0]
 8011e92:	f022 0204 	bicpl.w	r2, r2, #4
 8011e96:	601a      	strpl	r2, [r3, #0]
 8011e98:	6b03      	ldr	r3, [r0, #48]	; 0x30
 8011e9a:	604c      	str	r4, [r1, #4]
 8011e9c:	b373      	cbz	r3, 8011efc <HAL_DMA_IRQHandler+0x90>
 8011e9e:	bc70      	pop	{r4, r5, r6}
 8011ea0:	4718      	bx	r3
 8011ea2:	2402      	movs	r4, #2
 8011ea4:	4094      	lsls	r4, r2
 8011ea6:	4234      	tst	r4, r6
 8011ea8:	d012      	beq.n	8011ed0 <HAL_DMA_IRQHandler+0x64>
 8011eaa:	f015 0f02 	tst.w	r5, #2
 8011eae:	d00f      	beq.n	8011ed0 <HAL_DMA_IRQHandler+0x64>
 8011eb0:	681a      	ldr	r2, [r3, #0]
 8011eb2:	0695      	lsls	r5, r2, #26
 8011eb4:	d406      	bmi.n	8011ec4 <HAL_DMA_IRQHandler+0x58>
 8011eb6:	681a      	ldr	r2, [r3, #0]
 8011eb8:	f022 020a 	bic.w	r2, r2, #10
 8011ebc:	601a      	str	r2, [r3, #0]
 8011ebe:	2301      	movs	r3, #1
 8011ec0:	f880 3025 	strb.w	r3, [r0, #37]	; 0x25
 8011ec4:	2300      	movs	r3, #0
 8011ec6:	604c      	str	r4, [r1, #4]
 8011ec8:	f880 3024 	strb.w	r3, [r0, #36]	; 0x24
 8011ecc:	6ac3      	ldr	r3, [r0, #44]	; 0x2c
 8011ece:	e7e5      	b.n	8011e9c <HAL_DMA_IRQHandler+0x30>
 8011ed0:	2408      	movs	r4, #8
 8011ed2:	4094      	lsls	r4, r2
 8011ed4:	4234      	tst	r4, r6
 8011ed6:	d011      	beq.n	8011efc <HAL_DMA_IRQHandler+0x90>
 8011ed8:	072c      	lsls	r4, r5, #28
 8011eda:	d50f      	bpl.n	8011efc <HAL_DMA_IRQHandler+0x90>
 8011edc:	681c      	ldr	r4, [r3, #0]
 8011ede:	f024 040e 	bic.w	r4, r4, #14
 8011ee2:	601c      	str	r4, [r3, #0]
 8011ee4:	2301      	movs	r3, #1
 8011ee6:	fa03 f202 	lsl.w	r2, r3, r2
 8011eea:	604a      	str	r2, [r1, #4]
 8011eec:	63c3      	str	r3, [r0, #60]	; 0x3c
 8011eee:	f880 3025 	strb.w	r3, [r0, #37]	; 0x25
 8011ef2:	2300      	movs	r3, #0
 8011ef4:	f880 3024 	strb.w	r3, [r0, #36]	; 0x24
 8011ef8:	6b43      	ldr	r3, [r0, #52]	; 0x34
 8011efa:	e7cf      	b.n	8011e9c <HAL_DMA_IRQHandler+0x30>
 8011efc:	bc70      	pop	{r4, r5, r6}
 8011efe:	4770      	bx	lr

08011f00 <HAL_FLASH_Unlock>:
 8011f00:	4b06      	ldr	r3, [pc, #24]	; (8011f1c <HAL_FLASH_Unlock+0x1c>)
 8011f02:	695a      	ldr	r2, [r3, #20]
 8011f04:	2a00      	cmp	r2, #0
 8011f06:	bfbf      	itttt	lt
 8011f08:	4a05      	ldrlt	r2, [pc, #20]	; (8011f20 <HAL_FLASH_Unlock+0x20>)
 8011f0a:	609a      	strlt	r2, [r3, #8]
 8011f0c:	f102 3288 	addlt.w	r2, r2, #2290649224	; 0x88888888
 8011f10:	609a      	strlt	r2, [r3, #8]
 8011f12:	bfba      	itte	lt
 8011f14:	6958      	ldrlt	r0, [r3, #20]
 8011f16:	0fc0      	lsrlt	r0, r0, #31
 8011f18:	2000      	movge	r0, #0
 8011f1a:	4770      	bx	lr
 8011f1c:	58004000 	.word	0x58004000
 8011f20:	45670123 	.word	0x45670123

08011f24 <HAL_FLASH_Lock>:
 8011f24:	4b04      	ldr	r3, [pc, #16]	; (8011f38 <HAL_FLASH_Lock+0x14>)
 8011f26:	695a      	ldr	r2, [r3, #20]
 8011f28:	f042 4200 	orr.w	r2, r2, #2147483648	; 0x80000000
 8011f2c:	615a      	str	r2, [r3, #20]
 8011f2e:	6958      	ldr	r0, [r3, #20]
 8011f30:	43c0      	mvns	r0, r0
 8011f32:	0fc0      	lsrs	r0, r0, #31
 8011f34:	4770      	bx	lr
 8011f36:	bf00      	nop
 8011f38:	58004000 	.word	0x58004000

08011f3c <FLASH_WaitForLastOperation>:
 8011f3c:	b570      	push	{r4, r5, r6, lr}
 8011f3e:	4605      	mov	r5, r0
 8011f40:	f7ff fddc 	bl	8011afc <HAL_GetTick>
 8011f44:	4e13      	ldr	r6, [pc, #76]	; (8011f94 <FLASH_WaitForLastOperation+0x58>)
 8011f46:	4604      	mov	r4, r0
 8011f48:	6933      	ldr	r3, [r6, #16]
 8011f4a:	03d9      	lsls	r1, r3, #15
 8011f4c:	d40f      	bmi.n	8011f6e <FLASH_WaitForLastOperation+0x32>
 8011f4e:	6933      	ldr	r3, [r6, #16]
 8011f50:	07da      	lsls	r2, r3, #31
 8011f52:	bf44      	itt	mi
 8011f54:	2201      	movmi	r2, #1
 8011f56:	6132      	strmi	r2, [r6, #16]
 8011f58:	f24c 32fa 	movw	r2, #50170	; 0xc3fa
 8011f5c:	4013      	ands	r3, r2
 8011f5e:	d10d      	bne.n	8011f7c <FLASH_WaitForLastOperation+0x40>
 8011f60:	4e0c      	ldr	r6, [pc, #48]	; (8011f94 <FLASH_WaitForLastOperation+0x58>)
 8011f62:	6933      	ldr	r3, [r6, #16]
 8011f64:	f413 2380 	ands.w	r3, r3, #262144	; 0x40000
 8011f68:	d10e      	bne.n	8011f88 <FLASH_WaitForLastOperation+0x4c>
 8011f6a:	4618      	mov	r0, r3
 8011f6c:	e005      	b.n	8011f7a <FLASH_WaitForLastOperation+0x3e>
 8011f6e:	f7ff fdc5 	bl	8011afc <HAL_GetTick>
 8011f72:	1b00      	subs	r0, r0, r4
 8011f74:	42a8      	cmp	r0, r5
 8011f76:	d3e7      	bcc.n	8011f48 <FLASH_WaitForLastOperation+0xc>
 8011f78:	2003      	movs	r0, #3
 8011f7a:	bd70      	pop	{r4, r5, r6, pc}
 8011f7c:	4a05      	ldr	r2, [pc, #20]	; (8011f94 <FLASH_WaitForLastOperation+0x58>)
 8011f7e:	6113      	str	r3, [r2, #16]
 8011f80:	4a05      	ldr	r2, [pc, #20]	; (8011f98 <FLASH_WaitForLastOperation+0x5c>)
 8011f82:	2001      	movs	r0, #1
 8011f84:	6053      	str	r3, [r2, #4]
 8011f86:	e7f8      	b.n	8011f7a <FLASH_WaitForLastOperation+0x3e>
 8011f88:	f7ff fdb8 	bl	8011afc <HAL_GetTick>
 8011f8c:	1b00      	subs	r0, r0, r4
 8011f8e:	42a8      	cmp	r0, r5
 8011f90:	d3e7      	bcc.n	8011f62 <FLASH_WaitForLastOperation+0x26>
 8011f92:	e7f1      	b.n	8011f78 <FLASH_WaitForLastOperation+0x3c>
 8011f94:	58004000 	.word	0x58004000
 8011f98:	20001288 	.word	0x20001288

08011f9c <HAL_FLASH_Program>:
 8011f9c:	e92d 41f0 	stmdb	sp!, {r4, r5, r6, r7, r8, lr}
 8011fa0:	4c18      	ldr	r4, [pc, #96]	; (8012004 <HAL_FLASH_Program+0x68>)
 8011fa2:	4698      	mov	r8, r3
 8011fa4:	7823      	ldrb	r3, [r4, #0]
 8011fa6:	2b01      	cmp	r3, #1
 8011fa8:	4606      	mov	r6, r0
 8011faa:	460d      	mov	r5, r1
 8011fac:	4617      	mov	r7, r2
 8011fae:	d026      	beq.n	8011ffe <HAL_FLASH_Program+0x62>
 8011fb0:	2301      	movs	r3, #1
 8011fb2:	7023      	strb	r3, [r4, #0]
 8011fb4:	f44f 707a 	mov.w	r0, #1000	; 0x3e8
 8011fb8:	2300      	movs	r3, #0
 8011fba:	6063      	str	r3, [r4, #4]
 8011fbc:	f7ff ffbe 	bl	8011f3c <FLASH_WaitForLastOperation>
 8011fc0:	b9a0      	cbnz	r0, 8011fec <HAL_FLASH_Program+0x50>
 8011fc2:	2e01      	cmp	r6, #1
 8011fc4:	d116      	bne.n	8011ff4 <HAL_FLASH_Program+0x58>
 8011fc6:	4a10      	ldr	r2, [pc, #64]	; (8012008 <HAL_FLASH_Program+0x6c>)
 8011fc8:	6953      	ldr	r3, [r2, #20]
 8011fca:	f043 0301 	orr.w	r3, r3, #1
 8011fce:	6153      	str	r3, [r2, #20]
 8011fd0:	602f      	str	r7, [r5, #0]
 8011fd2:	f3bf 8f6f 	isb	sy
 8011fd6:	f8c5 8004 	str.w	r8, [r5, #4]
 8011fda:	f44f 707a 	mov.w	r0, #1000	; 0x3e8
 8011fde:	f7ff ffad 	bl	8011f3c <FLASH_WaitForLastOperation>
 8011fe2:	4a09      	ldr	r2, [pc, #36]	; (8012008 <HAL_FLASH_Program+0x6c>)
 8011fe4:	6953      	ldr	r3, [r2, #20]
 8011fe6:	ea23 0606 	bic.w	r6, r3, r6
 8011fea:	6156      	str	r6, [r2, #20]
 8011fec:	2300      	movs	r3, #0
 8011fee:	7023      	strb	r3, [r4, #0]
 8011ff0:	e8bd 81f0 	ldmia.w	sp!, {r4, r5, r6, r7, r8, pc}
 8011ff4:	4639      	mov	r1, r7
 8011ff6:	4628      	mov	r0, r5
 8011ff8:	f001 ff26 	bl	8013e48 <_etext>
 8011ffc:	e7ed      	b.n	8011fda <HAL_FLASH_Program+0x3e>
 8011ffe:	2002      	movs	r0, #2
 8012000:	e7f6      	b.n	8011ff0 <HAL_FLASH_Program+0x54>
 8012002:	bf00      	nop
 8012004:	20001288 	.word	0x20001288
 8012008:	58004000 	.word	0x58004000

0801200c <FLASH_PageErase>:
 801200c:	4a05      	ldr	r2, [pc, #20]	; (8012024 <FLASH_PageErase+0x18>)
 801200e:	6953      	ldr	r3, [r2, #20]
 8012010:	f423 63ff 	bic.w	r3, r3, #2040	; 0x7f8
 8012014:	ea43 00c0 	orr.w	r0, r3, r0, lsl #3
 8012018:	f440 3080 	orr.w	r0, r0, #65536	; 0x10000
 801201c:	f040 0002 	orr.w	r0, r0, #2
 8012020:	6150      	str	r0, [r2, #20]
 8012022:	4770      	bx	lr
 8012024:	58004000 	.word	0x58004000

08012028 <HAL_FLASHEx_Erase>:
 8012028:	e92d 41f0 	stmdb	sp!, {r4, r5, r6, r7, r8, lr}
 801202c:	4d30      	ldr	r5, [pc, #192]	; (80120f0 <HAL_FLASHEx_Erase+0xc8>)
 801202e:	782b      	ldrb	r3, [r5, #0]
 8012030:	2b01      	cmp	r3, #1
 8012032:	4606      	mov	r6, r0
 8012034:	4688      	mov	r8, r1
 8012036:	d059      	beq.n	80120ec <HAL_FLASHEx_Erase+0xc4>
 8012038:	2301      	movs	r3, #1
 801203a:	702b      	strb	r3, [r5, #0]
 801203c:	f44f 707a 	mov.w	r0, #1000	; 0x3e8
 8012040:	2300      	movs	r3, #0
 8012042:	606b      	str	r3, [r5, #4]
 8012044:	f7ff ff7a 	bl	8011f3c <FLASH_WaitForLastOperation>
 8012048:	4604      	mov	r4, r0
 801204a:	2800      	cmp	r0, #0
 801204c:	d147      	bne.n	80120de <HAL_FLASHEx_Erase+0xb6>
 801204e:	6833      	ldr	r3, [r6, #0]
 8012050:	2b02      	cmp	r3, #2
 8012052:	d11c      	bne.n	801208e <HAL_FLASHEx_Erase+0x66>
 8012054:	f04f 33ff 	mov.w	r3, #4294967295	; 0xffffffff
 8012058:	f8c8 3000 	str.w	r3, [r8]
 801205c:	6877      	ldr	r7, [r6, #4]
 801205e:	e9d6 3201 	ldrd	r3, r2, [r6, #4]
 8012062:	4413      	add	r3, r2
 8012064:	42bb      	cmp	r3, r7
 8012066:	d90b      	bls.n	8012080 <HAL_FLASHEx_Erase+0x58>
 8012068:	4638      	mov	r0, r7
 801206a:	f7ff ffcf 	bl	801200c <FLASH_PageErase>
 801206e:	f44f 707a 	mov.w	r0, #1000	; 0x3e8
 8012072:	f7ff ff63 	bl	8011f3c <FLASH_WaitForLastOperation>
 8012076:	2800      	cmp	r0, #0
 8012078:	d036      	beq.n	80120e8 <HAL_FLASHEx_Erase+0xc0>
 801207a:	f8c8 7000 	str.w	r7, [r8]
 801207e:	4604      	mov	r4, r0
 8012080:	4a1c      	ldr	r2, [pc, #112]	; (80120f4 <HAL_FLASHEx_Erase+0xcc>)
 8012082:	6953      	ldr	r3, [r2, #20]
 8012084:	f423 63ff 	bic.w	r3, r3, #2040	; 0x7f8
 8012088:	f023 0302 	bic.w	r3, r3, #2
 801208c:	6153      	str	r3, [r2, #20]
 801208e:	4b19      	ldr	r3, [pc, #100]	; (80120f4 <HAL_FLASHEx_Erase+0xcc>)
 8012090:	681a      	ldr	r2, [r3, #0]
 8012092:	0591      	lsls	r1, r2, #22
 8012094:	d50f      	bpl.n	80120b6 <HAL_FLASHEx_Erase+0x8e>
 8012096:	681a      	ldr	r2, [r3, #0]
 8012098:	f422 7200 	bic.w	r2, r2, #512	; 0x200
 801209c:	601a      	str	r2, [r3, #0]
 801209e:	681a      	ldr	r2, [r3, #0]
 80120a0:	f442 6200 	orr.w	r2, r2, #2048	; 0x800
 80120a4:	601a      	str	r2, [r3, #0]
 80120a6:	681a      	ldr	r2, [r3, #0]
 80120a8:	f422 6200 	bic.w	r2, r2, #2048	; 0x800
 80120ac:	601a      	str	r2, [r3, #0]
 80120ae:	681a      	ldr	r2, [r3, #0]
 80120b0:	f442 7200 	orr.w	r2, r2, #512	; 0x200
 80120b4:	601a      	str	r2, [r3, #0]
 80120b6:	4b0f      	ldr	r3, [pc, #60]	; (80120f4 <HAL_FLASHEx_Erase+0xcc>)
 80120b8:	681a      	ldr	r2, [r3, #0]
 80120ba:	0552      	lsls	r2, r2, #21
 80120bc:	d50f      	bpl.n	80120de <HAL_FLASHEx_Erase+0xb6>
 80120be:	681a      	ldr	r2, [r3, #0]
 80120c0:	f422 6280 	bic.w	r2, r2, #1024	; 0x400
 80120c4:	601a      	str	r2, [r3, #0]
 80120c6:	681a      	ldr	r2, [r3, #0]
 80120c8:	f442 5280 	orr.w	r2, r2, #4096	; 0x1000
 80120cc:	601a      	str	r2, [r3, #0]
 80120ce:	681a      	ldr	r2, [r3, #0]
 80120d0:	f422 5280 	bic.w	r2, r2, #4096	; 0x1000
 80120d4:	601a      	str	r2, [r3, #0]
 80120d6:	681a      	ldr	r2, [r3, #0]
 80120d8:	f442 6280 	orr.w	r2, r2, #1024	; 0x400
 80120dc:	601a      	str	r2, [r3, #0]
 80120de:	2300      	movs	r3, #0
 80120e0:	702b      	strb	r3, [r5, #0]
 80120e2:	4620      	mov	r0, r4
 80120e4:	e8bd 81f0 	ldmia.w	sp!, {r4, r5, r6, r7, r8, pc}
 80120e8:	3701      	adds	r7, #1
 80120ea:	e7b8      	b.n	801205e <HAL_FLASHEx_Erase+0x36>
 80120ec:	2402      	movs	r4, #2
 80120ee:	e7f8      	b.n	80120e2 <HAL_FLASHEx_Erase+0xba>
 80120f0:	20001288 	.word	0x20001288
 80120f4:	58004000 	.word	0x58004000

080120f8 <HAL_GPIO_Init>:
 80120f8:	e92d 4ff0 	stmdb	sp!, {r4, r5, r6, r7, r8, r9, sl, fp, lr}
 80120fc:	4c57      	ldr	r4, [pc, #348]	; (801225c <HAL_GPIO_Init+0x164>)
 80120fe:	2300      	movs	r3, #0
 8012100:	f04f 0901 	mov.w	r9, #1
 8012104:	f04f 080f 	mov.w	r8, #15
 8012108:	680a      	ldr	r2, [r1, #0]
 801210a:	fa32 f503 	lsrs.w	r5, r2, r3
 801210e:	d101      	bne.n	8012114 <HAL_GPIO_Init+0x1c>
 8012110:	e8bd 8ff0 	ldmia.w	sp!, {r4, r5, r6, r7, r8, r9, sl, fp, pc}
 8012114:	fa09 fe03 	lsl.w	lr, r9, r3
 8012118:	ea1e 0202 	ands.w	r2, lr, r2
 801211c:	f000 8094 	beq.w	8012248 <HAL_GPIO_Init+0x150>
 8012120:	684d      	ldr	r5, [r1, #4]
 8012122:	f025 0a10 	bic.w	sl, r5, #16
 8012126:	ea4f 0c43 	mov.w	ip, r3, lsl #1
 801212a:	2603      	movs	r6, #3
 801212c:	f10a 37ff 	add.w	r7, sl, #4294967295	; 0xffffffff
 8012130:	fa06 f60c 	lsl.w	r6, r6, ip
 8012134:	2f01      	cmp	r7, #1
 8012136:	ea6f 0606 	mvn.w	r6, r6
 801213a:	d811      	bhi.n	8012160 <HAL_GPIO_Init+0x68>
 801213c:	6887      	ldr	r7, [r0, #8]
 801213e:	ea07 0b06 	and.w	fp, r7, r6
 8012142:	68cf      	ldr	r7, [r1, #12]
 8012144:	fa07 f70c 	lsl.w	r7, r7, ip
 8012148:	ea47 070b 	orr.w	r7, r7, fp
 801214c:	6087      	str	r7, [r0, #8]
 801214e:	6847      	ldr	r7, [r0, #4]
 8012150:	ea27 0e0e 	bic.w	lr, r7, lr
 8012154:	f3c5 1700 	ubfx	r7, r5, #4, #1
 8012158:	409f      	lsls	r7, r3
 801215a:	ea47 070e 	orr.w	r7, r7, lr
 801215e:	6047      	str	r7, [r0, #4]
 8012160:	68c7      	ldr	r7, [r0, #12]
 8012162:	ea07 0e06 	and.w	lr, r7, r6
 8012166:	688f      	ldr	r7, [r1, #8]
 8012168:	fa07 f70c 	lsl.w	r7, r7, ip
 801216c:	ea47 070e 	orr.w	r7, r7, lr
 8012170:	f1ba 0f02 	cmp.w	sl, #2
 8012174:	60c7      	str	r7, [r0, #12]
 8012176:	d114      	bne.n	80121a2 <HAL_GPIO_Init+0xaa>
 8012178:	ea4f 0ed3 	mov.w	lr, r3, lsr #3
 801217c:	eb00 0e8e 	add.w	lr, r0, lr, lsl #2
 8012180:	f003 0a07 	and.w	sl, r3, #7
 8012184:	f8de 7020 	ldr.w	r7, [lr, #32]
 8012188:	ea4f 0a8a 	mov.w	sl, sl, lsl #2
 801218c:	fa08 fb0a 	lsl.w	fp, r8, sl
 8012190:	ea27 0b0b 	bic.w	fp, r7, fp
 8012194:	690f      	ldr	r7, [r1, #16]
 8012196:	fa07 f70a 	lsl.w	r7, r7, sl
 801219a:	ea47 070b 	orr.w	r7, r7, fp
 801219e:	f8ce 7020 	str.w	r7, [lr, #32]
 80121a2:	6807      	ldr	r7, [r0, #0]
 80121a4:	403e      	ands	r6, r7
 80121a6:	f005 0703 	and.w	r7, r5, #3
 80121aa:	fa07 fc0c 	lsl.w	ip, r7, ip
 80121ae:	ea4c 0606 	orr.w	r6, ip, r6
 80121b2:	6006      	str	r6, [r0, #0]
 80121b4:	00ee      	lsls	r6, r5, #3
 80121b6:	d547      	bpl.n	8012248 <HAL_GPIO_Init+0x150>
 80121b8:	f023 0703 	bic.w	r7, r3, #3
 80121bc:	f107 4780 	add.w	r7, r7, #1073741824	; 0x40000000
 80121c0:	f507 3780 	add.w	r7, r7, #65536	; 0x10000
 80121c4:	f003 0c03 	and.w	ip, r3, #3
 80121c8:	68be      	ldr	r6, [r7, #8]
 80121ca:	ea4f 0c8c 	mov.w	ip, ip, lsl #2
 80121ce:	fa08 fe0c 	lsl.w	lr, r8, ip
 80121d2:	f1b0 4f90 	cmp.w	r0, #1207959552	; 0x48000000
 80121d6:	ea26 0e0e 	bic.w	lr, r6, lr
 80121da:	d037      	beq.n	801224c <HAL_GPIO_Init+0x154>
 80121dc:	4e20      	ldr	r6, [pc, #128]	; (8012260 <HAL_GPIO_Init+0x168>)
 80121de:	42b0      	cmp	r0, r6
 80121e0:	d036      	beq.n	8012250 <HAL_GPIO_Init+0x158>
 80121e2:	f506 6680 	add.w	r6, r6, #1024	; 0x400
 80121e6:	42b0      	cmp	r0, r6
 80121e8:	d034      	beq.n	8012254 <HAL_GPIO_Init+0x15c>
 80121ea:	f506 6680 	add.w	r6, r6, #1024	; 0x400
 80121ee:	42b0      	cmp	r0, r6
 80121f0:	d032      	beq.n	8012258 <HAL_GPIO_Init+0x160>
 80121f2:	f506 6680 	add.w	r6, r6, #1024	; 0x400
 80121f6:	42b0      	cmp	r0, r6
 80121f8:	bf0c      	ite	eq
 80121fa:	2604      	moveq	r6, #4
 80121fc:	2607      	movne	r6, #7
 80121fe:	fa06 f60c 	lsl.w	r6, r6, ip
 8012202:	ea46 060e 	orr.w	r6, r6, lr
 8012206:	60be      	str	r6, [r7, #8]
 8012208:	f8d4 6080 	ldr.w	r6, [r4, #128]	; 0x80
 801220c:	43d7      	mvns	r7, r2
 801220e:	f415 3f80 	tst.w	r5, #65536	; 0x10000
 8012212:	bf0c      	ite	eq
 8012214:	403e      	andeq	r6, r7
 8012216:	4316      	orrne	r6, r2
 8012218:	f8c4 6080 	str.w	r6, [r4, #128]	; 0x80
 801221c:	f8d4 6084 	ldr.w	r6, [r4, #132]	; 0x84
 8012220:	f415 3f00 	tst.w	r5, #131072	; 0x20000
 8012224:	bf0c      	ite	eq
 8012226:	403e      	andeq	r6, r7
 8012228:	4316      	orrne	r6, r2
 801222a:	f8c4 6084 	str.w	r6, [r4, #132]	; 0x84
 801222e:	6826      	ldr	r6, [r4, #0]
 8012230:	f415 1f80 	tst.w	r5, #1048576	; 0x100000
 8012234:	bf0c      	ite	eq
 8012236:	403e      	andeq	r6, r7
 8012238:	4316      	orrne	r6, r2
 801223a:	6026      	str	r6, [r4, #0]
 801223c:	6866      	ldr	r6, [r4, #4]
 801223e:	02ad      	lsls	r5, r5, #10
 8012240:	bf54      	ite	pl
 8012242:	403e      	andpl	r6, r7
 8012244:	4316      	orrmi	r6, r2
 8012246:	6066      	str	r6, [r4, #4]
 8012248:	3301      	adds	r3, #1
 801224a:	e75d      	b.n	8012108 <HAL_GPIO_Init+0x10>
 801224c:	2600      	movs	r6, #0
 801224e:	e7d6      	b.n	80121fe <HAL_GPIO_Init+0x106>
 8012250:	2601      	movs	r6, #1
 8012252:	e7d4      	b.n	80121fe <HAL_GPIO_Init+0x106>
 8012254:	2602      	movs	r6, #2
 8012256:	e7d2      	b.n	80121fe <HAL_GPIO_Init+0x106>
 8012258:	2603      	movs	r6, #3
 801225a:	e7d0      	b.n	80121fe <HAL_GPIO_Init+0x106>
 801225c:	58000800 	.word	0x58000800
 8012260:	48000400 	.word	0x48000400

08012264 <HAL_GPIO_WritePin>:
 8012264:	b10a      	cbz	r2, 801226a <HAL_GPIO_WritePin+0x6>
 8012266:	6181      	str	r1, [r0, #24]
 8012268:	4770      	bx	lr
 801226a:	6281      	str	r1, [r0, #40]	; 0x28
 801226c:	4770      	bx	lr
	...

08012270 <HAL_PWR_EnableBkUpAccess>:
 8012270:	4a02      	ldr	r2, [pc, #8]	; (801227c <HAL_PWR_EnableBkUpAccess+0xc>)
 8012272:	6813      	ldr	r3, [r2, #0]
 8012274:	f443 7380 	orr.w	r3, r3, #256	; 0x100
 8012278:	6013      	str	r3, [r2, #0]
 801227a:	4770      	bx	lr
 801227c:	58000400 	.word	0x58000400

08012280 <HAL_PWR_EnterSLEEPMode>:
 8012280:	4b0d      	ldr	r3, [pc, #52]	; (80122b8 <HAL_PWR_EnterSLEEPMode+0x38>)
 8012282:	b510      	push	{r4, lr}
 8012284:	695b      	ldr	r3, [r3, #20]
 8012286:	460c      	mov	r4, r1
 8012288:	b928      	cbnz	r0, 8012296 <HAL_PWR_EnterSLEEPMode+0x16>
 801228a:	059a      	lsls	r2, r3, #22
 801228c:	d507      	bpl.n	801229e <HAL_PWR_EnterSLEEPMode+0x1e>
 801228e:	f000 f81f 	bl	80122d0 <HAL_PWREx_DisableLowPowerRunMode>
 8012292:	b120      	cbz	r0, 801229e <HAL_PWR_EnterSLEEPMode+0x1e>
 8012294:	bd10      	pop	{r4, pc}
 8012296:	059b      	lsls	r3, r3, #22
 8012298:	d401      	bmi.n	801229e <HAL_PWR_EnterSLEEPMode+0x1e>
 801229a:	f000 f811 	bl	80122c0 <HAL_PWREx_EnableLowPowerRunMode>
 801229e:	4a07      	ldr	r2, [pc, #28]	; (80122bc <HAL_PWR_EnterSLEEPMode+0x3c>)
 80122a0:	6913      	ldr	r3, [r2, #16]
 80122a2:	2c01      	cmp	r4, #1
 80122a4:	f023 0304 	bic.w	r3, r3, #4
 80122a8:	6113      	str	r3, [r2, #16]
 80122aa:	d101      	bne.n	80122b0 <HAL_PWR_EnterSLEEPMode+0x30>
 80122ac:	bf30      	wfi
 80122ae:	e7f1      	b.n	8012294 <HAL_PWR_EnterSLEEPMode+0x14>
 80122b0:	bf40      	sev
 80122b2:	bf20      	wfe
 80122b4:	bf20      	wfe
 80122b6:	e7ed      	b.n	8012294 <HAL_PWR_EnterSLEEPMode+0x14>
 80122b8:	58000400 	.word	0x58000400
 80122bc:	e000ed00 	.word	0xe000ed00

080122c0 <HAL_PWREx_EnableLowPowerRunMode>:
 80122c0:	4a02      	ldr	r2, [pc, #8]	; (80122cc <HAL_PWREx_EnableLowPowerRunMode+0xc>)
 80122c2:	6813      	ldr	r3, [r2, #0]
 80122c4:	f443 4380 	orr.w	r3, r3, #16384	; 0x4000
 80122c8:	6013      	str	r3, [r2, #0]
 80122ca:	4770      	bx	lr
 80122cc:	58000400 	.word	0x58000400

080122d0 <HAL_PWREx_DisableLowPowerRunMode>:
 80122d0:	4b0d      	ldr	r3, [pc, #52]	; (8012308 <HAL_PWREx_DisableLowPowerRunMode+0x38>)
 80122d2:	490e      	ldr	r1, [pc, #56]	; (801230c <HAL_PWREx_DisableLowPowerRunMode+0x3c>)
 80122d4:	681a      	ldr	r2, [r3, #0]
 80122d6:	f422 4280 	bic.w	r2, r2, #16384	; 0x4000
 80122da:	601a      	str	r2, [r3, #0]
 80122dc:	4a0c      	ldr	r2, [pc, #48]	; (8012310 <HAL_PWREx_DisableLowPowerRunMode+0x40>)
 80122de:	6812      	ldr	r2, [r2, #0]
 80122e0:	fbb2 f1f1 	udiv	r1, r2, r1
 80122e4:	2232      	movs	r2, #50	; 0x32
 80122e6:	434a      	muls	r2, r1
 80122e8:	4619      	mov	r1, r3
 80122ea:	6958      	ldr	r0, [r3, #20]
 80122ec:	f410 7f00 	tst.w	r0, #512	; 0x200
 80122f0:	d000      	beq.n	80122f4 <HAL_PWREx_DisableLowPowerRunMode+0x24>
 80122f2:	b932      	cbnz	r2, 8012302 <HAL_PWREx_DisableLowPowerRunMode+0x32>
 80122f4:	694b      	ldr	r3, [r1, #20]
 80122f6:	f413 7f00 	tst.w	r3, #512	; 0x200
 80122fa:	bf14      	ite	ne
 80122fc:	2003      	movne	r0, #3
 80122fe:	2000      	moveq	r0, #0
 8012300:	4770      	bx	lr
 8012302:	3a01      	subs	r2, #1
 8012304:	e7f1      	b.n	80122ea <HAL_PWREx_DisableLowPowerRunMode+0x1a>
 8012306:	bf00      	nop
 8012308:	58000400 	.word	0x58000400
 801230c:	000f4240 	.word	0x000f4240
 8012310:	20001038 	.word	0x20001038

08012314 <HAL_RCC_GetSysClockFreq>:
 8012314:	f04f 43b0 	mov.w	r3, #1476395008	; 0x58000000
 8012318:	689a      	ldr	r2, [r3, #8]
 801231a:	f012 020c 	ands.w	r2, r2, #12
 801231e:	d10a      	bne.n	8012336 <HAL_RCC_GetSysClockFreq+0x22>
 8012320:	681b      	ldr	r3, [r3, #0]
 8012322:	4a22      	ldr	r2, [pc, #136]	; (80123ac <HAL_RCC_GetSysClockFreq+0x98>)
 8012324:	f003 03f0 	and.w	r3, r3, #240	; 0xf0
 8012328:	2bb0      	cmp	r3, #176	; 0xb0
 801232a:	bf28      	it	cs
 801232c:	23b0      	movcs	r3, #176	; 0xb0
 801232e:	091b      	lsrs	r3, r3, #4
 8012330:	f852 0023 	ldr.w	r0, [r2, r3, lsl #2]
 8012334:	4770      	bx	lr
 8012336:	2a04      	cmp	r2, #4
 8012338:	d035      	beq.n	80123a6 <HAL_RCC_GetSysClockFreq+0x92>
 801233a:	2a08      	cmp	r2, #8
 801233c:	d107      	bne.n	801234e <HAL_RCC_GetSysClockFreq+0x3a>
 801233e:	681b      	ldr	r3, [r3, #0]
 8012340:	481b      	ldr	r0, [pc, #108]	; (80123b0 <HAL_RCC_GetSysClockFreq+0x9c>)
 8012342:	f413 1f80 	tst.w	r3, #1048576	; 0x100000
 8012346:	4b1b      	ldr	r3, [pc, #108]	; (80123b4 <HAL_RCC_GetSysClockFreq+0xa0>)
 8012348:	bf08      	it	eq
 801234a:	4618      	moveq	r0, r3
 801234c:	4770      	bx	lr
 801234e:	68da      	ldr	r2, [r3, #12]
 8012350:	f002 0203 	and.w	r2, r2, #3
 8012354:	2a02      	cmp	r2, #2
 8012356:	d024      	beq.n	80123a2 <HAL_RCC_GetSysClockFreq+0x8e>
 8012358:	2a03      	cmp	r2, #3
 801235a:	681b      	ldr	r3, [r3, #0]
 801235c:	d117      	bne.n	801238e <HAL_RCC_GetSysClockFreq+0x7a>
 801235e:	4814      	ldr	r0, [pc, #80]	; (80123b0 <HAL_RCC_GetSysClockFreq+0x9c>)
 8012360:	f413 1f80 	tst.w	r3, #1048576	; 0x100000
 8012364:	4b13      	ldr	r3, [pc, #76]	; (80123b4 <HAL_RCC_GetSysClockFreq+0xa0>)
 8012366:	bf18      	it	ne
 8012368:	4603      	movne	r3, r0
 801236a:	f04f 42b0 	mov.w	r2, #1476395008	; 0x58000000
 801236e:	68d0      	ldr	r0, [r2, #12]
 8012370:	68d1      	ldr	r1, [r2, #12]
 8012372:	68d2      	ldr	r2, [r2, #12]
 8012374:	f3c0 2006 	ubfx	r0, r0, #8, #7
 8012378:	4358      	muls	r0, r3
 801237a:	f3c1 1302 	ubfx	r3, r1, #4, #3
 801237e:	3301      	adds	r3, #1
 8012380:	fbb0 f0f3 	udiv	r0, r0, r3
 8012384:	0f53      	lsrs	r3, r2, #29
 8012386:	3301      	adds	r3, #1
 8012388:	fbb0 f0f3 	udiv	r0, r0, r3
 801238c:	4770      	bx	lr
 801238e:	f003 03f0 	and.w	r3, r3, #240	; 0xf0
 8012392:	2bb0      	cmp	r3, #176	; 0xb0
 8012394:	bf28      	it	cs
 8012396:	23b0      	movcs	r3, #176	; 0xb0
 8012398:	4a04      	ldr	r2, [pc, #16]	; (80123ac <HAL_RCC_GetSysClockFreq+0x98>)
 801239a:	091b      	lsrs	r3, r3, #4
 801239c:	f852 3023 	ldr.w	r3, [r2, r3, lsl #2]
 80123a0:	e7e3      	b.n	801236a <HAL_RCC_GetSysClockFreq+0x56>
 80123a2:	4b03      	ldr	r3, [pc, #12]	; (80123b0 <HAL_RCC_GetSysClockFreq+0x9c>)
 80123a4:	e7e1      	b.n	801236a <HAL_RCC_GetSysClockFreq+0x56>
 80123a6:	4802      	ldr	r0, [pc, #8]	; (80123b0 <HAL_RCC_GetSysClockFreq+0x9c>)
 80123a8:	4770      	bx	lr
 80123aa:	bf00      	nop
 80123ac:	08014078 	.word	0x08014078
 80123b0:	00f42400 	.word	0x00f42400
 80123b4:	01e84800 	.word	0x01e84800

080123b8 <HAL_RCC_GetHCLKFreq>:
 80123b8:	b508      	push	{r3, lr}
 80123ba:	f7ff ffab 	bl	8012314 <HAL_RCC_GetSysClockFreq>
 80123be:	f04f 43b0 	mov.w	r3, #1476395008	; 0x58000000
 80123c2:	4a04      	ldr	r2, [pc, #16]	; (80123d4 <HAL_RCC_GetHCLKFreq+0x1c>)
 80123c4:	689b      	ldr	r3, [r3, #8]
 80123c6:	f3c3 1303 	ubfx	r3, r3, #4, #4
 80123ca:	f852 3023 	ldr.w	r3, [r2, r3, lsl #2]
 80123ce:	fbb0 f0f3 	udiv	r0, r0, r3
 80123d2:	bd08      	pop	{r3, pc}
 80123d4:	08014018 	.word	0x08014018

080123d8 <HAL_RCC_GetPCLK1Freq>:
 80123d8:	b508      	push	{r3, lr}
 80123da:	f7ff ffed 	bl	80123b8 <HAL_RCC_GetHCLKFreq>
 80123de:	f04f 43b0 	mov.w	r3, #1476395008	; 0x58000000
 80123e2:	4a05      	ldr	r2, [pc, #20]	; (80123f8 <HAL_RCC_GetPCLK1Freq+0x20>)
 80123e4:	689b      	ldr	r3, [r3, #8]
 80123e6:	f3c3 2302 	ubfx	r3, r3, #8, #3
 80123ea:	f852 3023 	ldr.w	r3, [r2, r3, lsl #2]
 80123ee:	f003 031f 	and.w	r3, r3, #31
 80123f2:	40d8      	lsrs	r0, r3
 80123f4:	bd08      	pop	{r3, pc}
 80123f6:	bf00      	nop
 80123f8:	08014058 	.word	0x08014058

080123fc <HAL_RCC_GetPCLK2Freq>:
 80123fc:	b508      	push	{r3, lr}
 80123fe:	f7ff ffdb 	bl	80123b8 <HAL_RCC_GetHCLKFreq>
 8012402:	f04f 43b0 	mov.w	r3, #1476395008	; 0x58000000
 8012406:	4a05      	ldr	r2, [pc, #20]	; (801241c <HAL_RCC_GetPCLK2Freq+0x20>)
 8012408:	689b      	ldr	r3, [r3, #8]
 801240a:	f3c3 23c2 	ubfx	r3, r3, #11, #3
 801240e:	f852 3023 	ldr.w	r3, [r2, r3, lsl #2]
 8012412:	f003 031f 	and.w	r3, r3, #31
 8012416:	40d8      	lsrs	r0, r3
 8012418:	bd08      	pop	{r3, pc}
 801241a:	bf00      	nop
 801241c:	08014058 	.word	0x08014058

08012420 <HAL_RTC_MspInit>:
 8012420:	4770      	bx	lr

08012422 <HAL_RTC_WaitForSynchro>:
 8012422:	6802      	ldr	r2, [r0, #0]
 8012424:	b538      	push	{r3, r4, r5, lr}
 8012426:	68d3      	ldr	r3, [r2, #12]
 8012428:	f023 03a0 	bic.w	r3, r3, #160	; 0xa0
 801242c:	60d3      	str	r3, [r2, #12]
 801242e:	4604      	mov	r4, r0
 8012430:	f7ff fb64 	bl	8011afc <HAL_GetTick>
 8012434:	4605      	mov	r5, r0
 8012436:	6823      	ldr	r3, [r4, #0]
 8012438:	68db      	ldr	r3, [r3, #12]
 801243a:	069b      	lsls	r3, r3, #26
 801243c:	d501      	bpl.n	8012442 <HAL_RTC_WaitForSynchro+0x20>
 801243e:	2000      	movs	r0, #0
 8012440:	bd38      	pop	{r3, r4, r5, pc}
 8012442:	f7ff fb5b 	bl	8011afc <HAL_GetTick>
 8012446:	1b40      	subs	r0, r0, r5
 8012448:	f5b0 7f7a 	cmp.w	r0, #1000	; 0x3e8
 801244c:	d9f3      	bls.n	8012436 <HAL_RTC_WaitForSynchro+0x14>
 801244e:	2003      	movs	r0, #3
 8012450:	e7f6      	b.n	8012440 <HAL_RTC_WaitForSynchro+0x1e>

08012452 <RTC_EnterInitMode>:
 8012452:	b538      	push	{r3, r4, r5, lr}
 8012454:	6803      	ldr	r3, [r0, #0]
 8012456:	68da      	ldr	r2, [r3, #12]
 8012458:	0652      	lsls	r2, r2, #25
 801245a:	4604      	mov	r4, r0
 801245c:	d501      	bpl.n	8012462 <RTC_EnterInitMode+0x10>
 801245e:	2000      	movs	r0, #0
 8012460:	bd38      	pop	{r3, r4, r5, pc}
 8012462:	f04f 32ff 	mov.w	r2, #4294967295	; 0xffffffff
 8012466:	60da      	str	r2, [r3, #12]
 8012468:	f7ff fb48 	bl	8011afc <HAL_GetTick>
 801246c:	4605      	mov	r5, r0
 801246e:	6823      	ldr	r3, [r4, #0]
 8012470:	68db      	ldr	r3, [r3, #12]
 8012472:	065b      	lsls	r3, r3, #25
 8012474:	d4f3      	bmi.n	801245e <RTC_EnterInitMode+0xc>
 8012476:	f7ff fb41 	bl	8011afc <HAL_GetTick>
 801247a:	1b40      	subs	r0, r0, r5
 801247c:	f5b0 7f7a 	cmp.w	r0, #1000	; 0x3e8
 8012480:	d9f5      	bls.n	801246e <RTC_EnterInitMode+0x1c>
 8012482:	2003      	movs	r0, #3
 8012484:	e7ec      	b.n	8012460 <RTC_EnterInitMode+0xe>

08012486 <HAL_RTC_Init>:
 8012486:	b538      	push	{r3, r4, r5, lr}
 8012488:	4604      	mov	r4, r0
 801248a:	b1d8      	cbz	r0, 80124c4 <HAL_RTC_Init+0x3e>
 801248c:	f890 3021 	ldrb.w	r3, [r0, #33]	; 0x21
 8012490:	f003 02ff 	and.w	r2, r3, #255	; 0xff
 8012494:	b91b      	cbnz	r3, 801249e <HAL_RTC_Init+0x18>
 8012496:	f880 2020 	strb.w	r2, [r0, #32]
 801249a:	f7ff ffc1 	bl	8012420 <HAL_RTC_MspInit>
 801249e:	2302      	movs	r3, #2
 80124a0:	f884 3021 	strb.w	r3, [r4, #33]	; 0x21
 80124a4:	6823      	ldr	r3, [r4, #0]
 80124a6:	22ca      	movs	r2, #202	; 0xca
 80124a8:	625a      	str	r2, [r3, #36]	; 0x24
 80124aa:	2253      	movs	r2, #83	; 0x53
 80124ac:	625a      	str	r2, [r3, #36]	; 0x24
 80124ae:	4620      	mov	r0, r4
 80124b0:	f7ff ffcf 	bl	8012452 <RTC_EnterInitMode>
 80124b4:	6823      	ldr	r3, [r4, #0]
 80124b6:	4605      	mov	r5, r0
 80124b8:	b130      	cbz	r0, 80124c8 <HAL_RTC_Init+0x42>
 80124ba:	22ff      	movs	r2, #255	; 0xff
 80124bc:	625a      	str	r2, [r3, #36]	; 0x24
 80124be:	2304      	movs	r3, #4
 80124c0:	f884 3021 	strb.w	r3, [r4, #33]	; 0x21
 80124c4:	2501      	movs	r5, #1
 80124c6:	e038      	b.n	801253a <HAL_RTC_Init+0xb4>
 80124c8:	689a      	ldr	r2, [r3, #8]
 80124ca:	6920      	ldr	r0, [r4, #16]
 80124cc:	f422 02e0 	bic.w	r2, r2, #7340032	; 0x700000
 80124d0:	f022 0240 	bic.w	r2, r2, #64	; 0x40
 80124d4:	609a      	str	r2, [r3, #8]
 80124d6:	6862      	ldr	r2, [r4, #4]
 80124d8:	6899      	ldr	r1, [r3, #8]
 80124da:	4302      	orrs	r2, r0
 80124dc:	69a0      	ldr	r0, [r4, #24]
 80124de:	4302      	orrs	r2, r0
 80124e0:	430a      	orrs	r2, r1
 80124e2:	609a      	str	r2, [r3, #8]
 80124e4:	68e2      	ldr	r2, [r4, #12]
 80124e6:	611a      	str	r2, [r3, #16]
 80124e8:	691a      	ldr	r2, [r3, #16]
 80124ea:	68a1      	ldr	r1, [r4, #8]
 80124ec:	6960      	ldr	r0, [r4, #20]
 80124ee:	ea42 4201 	orr.w	r2, r2, r1, lsl #16
 80124f2:	611a      	str	r2, [r3, #16]
 80124f4:	68da      	ldr	r2, [r3, #12]
 80124f6:	f022 0280 	bic.w	r2, r2, #128	; 0x80
 80124fa:	60da      	str	r2, [r3, #12]
 80124fc:	6cda      	ldr	r2, [r3, #76]	; 0x4c
 80124fe:	f022 0203 	bic.w	r2, r2, #3
 8012502:	64da      	str	r2, [r3, #76]	; 0x4c
 8012504:	69e2      	ldr	r2, [r4, #28]
 8012506:	6cd9      	ldr	r1, [r3, #76]	; 0x4c
 8012508:	4302      	orrs	r2, r0
 801250a:	430a      	orrs	r2, r1
 801250c:	64da      	str	r2, [r3, #76]	; 0x4c
 801250e:	689b      	ldr	r3, [r3, #8]
 8012510:	069b      	lsls	r3, r3, #26
 8012512:	d40c      	bmi.n	801252e <HAL_RTC_Init+0xa8>
 8012514:	4620      	mov	r0, r4
 8012516:	f7ff ff84 	bl	8012422 <HAL_RTC_WaitForSynchro>
 801251a:	b140      	cbz	r0, 801252e <HAL_RTC_Init+0xa8>
 801251c:	6823      	ldr	r3, [r4, #0]
 801251e:	22ff      	movs	r2, #255	; 0xff
 8012520:	625a      	str	r2, [r3, #36]	; 0x24
 8012522:	2304      	movs	r3, #4
 8012524:	f884 3021 	strb.w	r3, [r4, #33]	; 0x21
 8012528:	f884 5020 	strb.w	r5, [r4, #32]
 801252c:	e7ca      	b.n	80124c4 <HAL_RTC_Init+0x3e>
 801252e:	6823      	ldr	r3, [r4, #0]
 8012530:	22ff      	movs	r2, #255	; 0xff
 8012532:	625a      	str	r2, [r3, #36]	; 0x24
 8012534:	2301      	movs	r3, #1
 8012536:	f884 3021 	strb.w	r3, [r4, #33]	; 0x21
 801253a:	4628      	mov	r0, r5
 801253c:	bd38      	pop	{r3, r4, r5, pc}

0801253e <UART_EndRxTransfer>:
 801253e:	6803      	ldr	r3, [r0, #0]
 8012540:	681a      	ldr	r2, [r3, #0]
 8012542:	f422 7290 	bic.w	r2, r2, #288	; 0x120
 8012546:	601a      	str	r2, [r3, #0]
 8012548:	689a      	ldr	r2, [r3, #8]
 801254a:	f022 5280 	bic.w	r2, r2, #268435456	; 0x10000000
 801254e:	f022 0201 	bic.w	r2, r2, #1
 8012552:	609a      	str	r2, [r3, #8]
 8012554:	6ec2      	ldr	r2, [r0, #108]	; 0x6c
 8012556:	2a01      	cmp	r2, #1
 8012558:	bf02      	ittt	eq
 801255a:	681a      	ldreq	r2, [r3, #0]
 801255c:	f022 0210 	biceq.w	r2, r2, #16
 8012560:	601a      	streq	r2, [r3, #0]
 8012562:	2320      	movs	r3, #32
 8012564:	f8c0 3088 	str.w	r3, [r0, #136]	; 0x88
 8012568:	2300      	movs	r3, #0
 801256a:	66c3      	str	r3, [r0, #108]	; 0x6c
 801256c:	6703      	str	r3, [r0, #112]	; 0x70
 801256e:	4770      	bx	lr

08012570 <HAL_UART_ErrorCallback>:
 8012570:	4770      	bx	lr

08012572 <UART_DMAAbortOnError>:
 8012572:	b508      	push	{r3, lr}
 8012574:	6a80      	ldr	r0, [r0, #40]	; 0x28
 8012576:	2300      	movs	r3, #0
 8012578:	f8a0 305e 	strh.w	r3, [r0, #94]	; 0x5e
 801257c:	f8a0 3056 	strh.w	r3, [r0, #86]	; 0x56
 8012580:	f7ff fff6 	bl	8012570 <HAL_UART_ErrorCallback>
 8012584:	bd08      	pop	{r3, pc}

08012586 <HAL_UARTEx_RxEventCallback>:
 8012586:	4770      	bx	lr

08012588 <HAL_UART_IRQHandler>:
 8012588:	6803      	ldr	r3, [r0, #0]
 801258a:	69da      	ldr	r2, [r3, #28]
 801258c:	6819      	ldr	r1, [r3, #0]
 801258e:	e92d 41f0 	stmdb	sp!, {r4, r5, r6, r7, r8, lr}
 8012592:	f640 060f 	movw	r6, #2063	; 0x80f
 8012596:	4232      	tst	r2, r6
 8012598:	689d      	ldr	r5, [r3, #8]
 801259a:	4604      	mov	r4, r0
 801259c:	d10f      	bne.n	80125be <HAL_UART_IRQHandler+0x36>
 801259e:	0696      	lsls	r6, r2, #26
 80125a0:	f140 808b 	bpl.w	80126ba <HAL_UART_IRQHandler+0x132>
 80125a4:	f001 0620 	and.w	r6, r1, #32
 80125a8:	f005 5780 	and.w	r7, r5, #268435456	; 0x10000000
 80125ac:	433e      	orrs	r6, r7
 80125ae:	f000 8084 	beq.w	80126ba <HAL_UART_IRQHandler+0x132>
 80125b2:	6f03      	ldr	r3, [r0, #112]	; 0x70
 80125b4:	2b00      	cmp	r3, #0
 80125b6:	d079      	beq.n	80126ac <HAL_UART_IRQHandler+0x124>
 80125b8:	e8bd 41f0 	ldmia.w	sp!, {r4, r5, r6, r7, r8, lr}
 80125bc:	4718      	bx	r3
 80125be:	4e8d      	ldr	r6, [pc, #564]	; (80127f4 <HAL_UART_IRQHandler+0x26c>)
 80125c0:	488d      	ldr	r0, [pc, #564]	; (80127f8 <HAL_UART_IRQHandler+0x270>)
 80125c2:	402e      	ands	r6, r5
 80125c4:	4008      	ands	r0, r1
 80125c6:	4330      	orrs	r0, r6
 80125c8:	d077      	beq.n	80126ba <HAL_UART_IRQHandler+0x132>
 80125ca:	07d7      	lsls	r7, r2, #31
 80125cc:	d509      	bpl.n	80125e2 <HAL_UART_IRQHandler+0x5a>
 80125ce:	05c8      	lsls	r0, r1, #23
 80125d0:	d507      	bpl.n	80125e2 <HAL_UART_IRQHandler+0x5a>
 80125d2:	2001      	movs	r0, #1
 80125d4:	6218      	str	r0, [r3, #32]
 80125d6:	f8d4 008c 	ldr.w	r0, [r4, #140]	; 0x8c
 80125da:	f040 0001 	orr.w	r0, r0, #1
 80125de:	f8c4 008c 	str.w	r0, [r4, #140]	; 0x8c
 80125e2:	0797      	lsls	r7, r2, #30
 80125e4:	d509      	bpl.n	80125fa <HAL_UART_IRQHandler+0x72>
 80125e6:	07e8      	lsls	r0, r5, #31
 80125e8:	d507      	bpl.n	80125fa <HAL_UART_IRQHandler+0x72>
 80125ea:	2002      	movs	r0, #2
 80125ec:	6218      	str	r0, [r3, #32]
 80125ee:	f8d4 008c 	ldr.w	r0, [r4, #140]	; 0x8c
 80125f2:	f040 0004 	orr.w	r0, r0, #4
 80125f6:	f8c4 008c 	str.w	r0, [r4, #140]	; 0x8c
 80125fa:	0757      	lsls	r7, r2, #29
 80125fc:	d509      	bpl.n	8012612 <HAL_UART_IRQHandler+0x8a>
 80125fe:	07e8      	lsls	r0, r5, #31
 8012600:	d507      	bpl.n	8012612 <HAL_UART_IRQHandler+0x8a>
 8012602:	2004      	movs	r0, #4
 8012604:	6218      	str	r0, [r3, #32]
 8012606:	f8d4 008c 	ldr.w	r0, [r4, #140]	; 0x8c
 801260a:	f040 0002 	orr.w	r0, r0, #2
 801260e:	f8c4 008c 	str.w	r0, [r4, #140]	; 0x8c
 8012612:	0717      	lsls	r7, r2, #28
 8012614:	d50b      	bpl.n	801262e <HAL_UART_IRQHandler+0xa6>
 8012616:	f001 0020 	and.w	r0, r1, #32
 801261a:	4330      	orrs	r0, r6
 801261c:	d007      	beq.n	801262e <HAL_UART_IRQHandler+0xa6>
 801261e:	2008      	movs	r0, #8
 8012620:	6218      	str	r0, [r3, #32]
 8012622:	f8d4 008c 	ldr.w	r0, [r4, #140]	; 0x8c
 8012626:	f040 0008 	orr.w	r0, r0, #8
 801262a:	f8c4 008c 	str.w	r0, [r4, #140]	; 0x8c
 801262e:	0516      	lsls	r6, r2, #20
 8012630:	d50a      	bpl.n	8012648 <HAL_UART_IRQHandler+0xc0>
 8012632:	0148      	lsls	r0, r1, #5
 8012634:	d508      	bpl.n	8012648 <HAL_UART_IRQHandler+0xc0>
 8012636:	f44f 6000 	mov.w	r0, #2048	; 0x800
 801263a:	6218      	str	r0, [r3, #32]
 801263c:	f8d4 308c 	ldr.w	r3, [r4, #140]	; 0x8c
 8012640:	f043 0320 	orr.w	r3, r3, #32
 8012644:	f8c4 308c 	str.w	r3, [r4, #140]	; 0x8c
 8012648:	f8d4 308c 	ldr.w	r3, [r4, #140]	; 0x8c
 801264c:	b373      	cbz	r3, 80126ac <HAL_UART_IRQHandler+0x124>
 801264e:	0693      	lsls	r3, r2, #26
 8012650:	d50a      	bpl.n	8012668 <HAL_UART_IRQHandler+0xe0>
 8012652:	f001 0120 	and.w	r1, r1, #32
 8012656:	f005 5580 	and.w	r5, r5, #268435456	; 0x10000000
 801265a:	ea51 0305 	orrs.w	r3, r1, r5
 801265e:	d003      	beq.n	8012668 <HAL_UART_IRQHandler+0xe0>
 8012660:	6f23      	ldr	r3, [r4, #112]	; 0x70
 8012662:	b10b      	cbz	r3, 8012668 <HAL_UART_IRQHandler+0xe0>
 8012664:	4620      	mov	r0, r4
 8012666:	4798      	blx	r3
 8012668:	6823      	ldr	r3, [r4, #0]
 801266a:	f8d4 508c 	ldr.w	r5, [r4, #140]	; 0x8c
 801266e:	689b      	ldr	r3, [r3, #8]
 8012670:	f005 0528 	and.w	r5, r5, #40	; 0x28
 8012674:	f003 0340 	and.w	r3, r3, #64	; 0x40
 8012678:	431d      	orrs	r5, r3
 801267a:	4620      	mov	r0, r4
 801267c:	d018      	beq.n	80126b0 <HAL_UART_IRQHandler+0x128>
 801267e:	f7ff ff5e 	bl	801253e <UART_EndRxTransfer>
 8012682:	6823      	ldr	r3, [r4, #0]
 8012684:	689a      	ldr	r2, [r3, #8]
 8012686:	0657      	lsls	r7, r2, #25
 8012688:	d50d      	bpl.n	80126a6 <HAL_UART_IRQHandler+0x11e>
 801268a:	689a      	ldr	r2, [r3, #8]
 801268c:	6fe0      	ldr	r0, [r4, #124]	; 0x7c
 801268e:	f022 0240 	bic.w	r2, r2, #64	; 0x40
 8012692:	609a      	str	r2, [r3, #8]
 8012694:	b138      	cbz	r0, 80126a6 <HAL_UART_IRQHandler+0x11e>
 8012696:	4b59      	ldr	r3, [pc, #356]	; (80127fc <HAL_UART_IRQHandler+0x274>)
 8012698:	6383      	str	r3, [r0, #56]	; 0x38
 801269a:	f7ff fbb0 	bl	8011dfe <HAL_DMA_Abort_IT>
 801269e:	b128      	cbz	r0, 80126ac <HAL_UART_IRQHandler+0x124>
 80126a0:	6fe0      	ldr	r0, [r4, #124]	; 0x7c
 80126a2:	6b83      	ldr	r3, [r0, #56]	; 0x38
 80126a4:	e788      	b.n	80125b8 <HAL_UART_IRQHandler+0x30>
 80126a6:	4620      	mov	r0, r4
 80126a8:	f7ff ff62 	bl	8012570 <HAL_UART_ErrorCallback>
 80126ac:	e8bd 81f0 	ldmia.w	sp!, {r4, r5, r6, r7, r8, pc}
 80126b0:	f7ff ff5e 	bl	8012570 <HAL_UART_ErrorCallback>
 80126b4:	f8c4 508c 	str.w	r5, [r4, #140]	; 0x8c
 80126b8:	e7f8      	b.n	80126ac <HAL_UART_IRQHandler+0x124>
 80126ba:	6ee0      	ldr	r0, [r4, #108]	; 0x6c
 80126bc:	2801      	cmp	r0, #1
 80126be:	d15b      	bne.n	8012778 <HAL_UART_IRQHandler+0x1f0>
 80126c0:	06d6      	lsls	r6, r2, #27
 80126c2:	d559      	bpl.n	8012778 <HAL_UART_IRQHandler+0x1f0>
 80126c4:	06c8      	lsls	r0, r1, #27
 80126c6:	d557      	bpl.n	8012778 <HAL_UART_IRQHandler+0x1f0>
 80126c8:	2210      	movs	r2, #16
 80126ca:	621a      	str	r2, [r3, #32]
 80126cc:	689a      	ldr	r2, [r3, #8]
 80126ce:	f012 0240 	ands.w	r2, r2, #64	; 0x40
 80126d2:	d02f      	beq.n	8012734 <HAL_UART_IRQHandler+0x1ac>
 80126d4:	6fe0      	ldr	r0, [r4, #124]	; 0x7c
 80126d6:	6801      	ldr	r1, [r0, #0]
 80126d8:	684a      	ldr	r2, [r1, #4]
 80126da:	b292      	uxth	r2, r2
 80126dc:	2a00      	cmp	r2, #0
 80126de:	d0e5      	beq.n	80126ac <HAL_UART_IRQHandler+0x124>
 80126e0:	f8b4 505c 	ldrh.w	r5, [r4, #92]	; 0x5c
 80126e4:	4295      	cmp	r5, r2
 80126e6:	d9e1      	bls.n	80126ac <HAL_UART_IRQHandler+0x124>
 80126e8:	f8a4 205e 	strh.w	r2, [r4, #94]	; 0x5e
 80126ec:	680a      	ldr	r2, [r1, #0]
 80126ee:	f012 0220 	ands.w	r2, r2, #32
 80126f2:	d115      	bne.n	8012720 <HAL_UART_IRQHandler+0x198>
 80126f4:	6819      	ldr	r1, [r3, #0]
 80126f6:	f421 7180 	bic.w	r1, r1, #256	; 0x100
 80126fa:	6019      	str	r1, [r3, #0]
 80126fc:	6899      	ldr	r1, [r3, #8]
 80126fe:	f021 0101 	bic.w	r1, r1, #1
 8012702:	6099      	str	r1, [r3, #8]
 8012704:	6899      	ldr	r1, [r3, #8]
 8012706:	f021 0140 	bic.w	r1, r1, #64	; 0x40
 801270a:	6099      	str	r1, [r3, #8]
 801270c:	2120      	movs	r1, #32
 801270e:	f8c4 1088 	str.w	r1, [r4, #136]	; 0x88
 8012712:	66e2      	str	r2, [r4, #108]	; 0x6c
 8012714:	681a      	ldr	r2, [r3, #0]
 8012716:	f022 0210 	bic.w	r2, r2, #16
 801271a:	601a      	str	r2, [r3, #0]
 801271c:	f7ff fb3a 	bl	8011d94 <HAL_DMA_Abort>
 8012720:	f8b4 305e 	ldrh.w	r3, [r4, #94]	; 0x5e
 8012724:	f8b4 105c 	ldrh.w	r1, [r4, #92]	; 0x5c
 8012728:	1ac9      	subs	r1, r1, r3
 801272a:	b289      	uxth	r1, r1
 801272c:	4620      	mov	r0, r4
 801272e:	f7ff ff2a 	bl	8012586 <HAL_UARTEx_RxEventCallback>
 8012732:	e7bb      	b.n	80126ac <HAL_UART_IRQHandler+0x124>
 8012734:	f8b4 105e 	ldrh.w	r1, [r4, #94]	; 0x5e
 8012738:	b288      	uxth	r0, r1
 801273a:	f8b4 105e 	ldrh.w	r1, [r4, #94]	; 0x5e
 801273e:	b289      	uxth	r1, r1
 8012740:	2900      	cmp	r1, #0
 8012742:	d0b3      	beq.n	80126ac <HAL_UART_IRQHandler+0x124>
 8012744:	f8b4 105c 	ldrh.w	r1, [r4, #92]	; 0x5c
 8012748:	1a09      	subs	r1, r1, r0
 801274a:	b289      	uxth	r1, r1
 801274c:	2900      	cmp	r1, #0
 801274e:	d0ad      	beq.n	80126ac <HAL_UART_IRQHandler+0x124>
 8012750:	6818      	ldr	r0, [r3, #0]
 8012752:	f420 7090 	bic.w	r0, r0, #288	; 0x120
 8012756:	6018      	str	r0, [r3, #0]
 8012758:	6898      	ldr	r0, [r3, #8]
 801275a:	f020 5080 	bic.w	r0, r0, #268435456	; 0x10000000
 801275e:	f020 0001 	bic.w	r0, r0, #1
 8012762:	6098      	str	r0, [r3, #8]
 8012764:	2020      	movs	r0, #32
 8012766:	f8c4 0088 	str.w	r0, [r4, #136]	; 0x88
 801276a:	66e2      	str	r2, [r4, #108]	; 0x6c
 801276c:	6722      	str	r2, [r4, #112]	; 0x70
 801276e:	681a      	ldr	r2, [r3, #0]
 8012770:	f022 0210 	bic.w	r2, r2, #16
 8012774:	601a      	str	r2, [r3, #0]
 8012776:	e7d9      	b.n	801272c <HAL_UART_IRQHandler+0x1a4>
 8012778:	02d7      	lsls	r7, r2, #11
 801277a:	d509      	bpl.n	8012790 <HAL_UART_IRQHandler+0x208>
 801277c:	026e      	lsls	r6, r5, #9
 801277e:	d507      	bpl.n	8012790 <HAL_UART_IRQHandler+0x208>
 8012780:	f44f 1280 	mov.w	r2, #1048576	; 0x100000
 8012784:	4620      	mov	r0, r4
 8012786:	621a      	str	r2, [r3, #32]
 8012788:	e8bd 41f0 	ldmia.w	sp!, {r4, r5, r6, r7, r8, lr}
 801278c:	f000 ba37 	b.w	8012bfe <HAL_UARTEx_WakeupCallback>
 8012790:	0610      	lsls	r0, r2, #24
 8012792:	d50a      	bpl.n	80127aa <HAL_UART_IRQHandler+0x222>
 8012794:	f001 0080 	and.w	r0, r1, #128	; 0x80
 8012798:	f405 0500 	and.w	r5, r5, #8388608	; 0x800000
 801279c:	4328      	orrs	r0, r5
 801279e:	d004      	beq.n	80127aa <HAL_UART_IRQHandler+0x222>
 80127a0:	6f63      	ldr	r3, [r4, #116]	; 0x74
 80127a2:	2b00      	cmp	r3, #0
 80127a4:	d082      	beq.n	80126ac <HAL_UART_IRQHandler+0x124>
 80127a6:	4620      	mov	r0, r4
 80127a8:	e706      	b.n	80125b8 <HAL_UART_IRQHandler+0x30>
 80127aa:	0657      	lsls	r7, r2, #25
 80127ac:	d50e      	bpl.n	80127cc <HAL_UART_IRQHandler+0x244>
 80127ae:	064e      	lsls	r6, r1, #25
 80127b0:	d50c      	bpl.n	80127cc <HAL_UART_IRQHandler+0x244>
 80127b2:	681a      	ldr	r2, [r3, #0]
 80127b4:	f022 0240 	bic.w	r2, r2, #64	; 0x40
 80127b8:	601a      	str	r2, [r3, #0]
 80127ba:	2320      	movs	r3, #32
 80127bc:	f8c4 3084 	str.w	r3, [r4, #132]	; 0x84
 80127c0:	2300      	movs	r3, #0
 80127c2:	6763      	str	r3, [r4, #116]	; 0x74
 80127c4:	4620      	mov	r0, r4
 80127c6:	f7fe fc5d 	bl	8011084 <HAL_UART_TxCpltCallback>
 80127ca:	e76f      	b.n	80126ac <HAL_UART_IRQHandler+0x124>
 80127cc:	0215      	lsls	r5, r2, #8
 80127ce:	d506      	bpl.n	80127de <HAL_UART_IRQHandler+0x256>
 80127d0:	0048      	lsls	r0, r1, #1
 80127d2:	d504      	bpl.n	80127de <HAL_UART_IRQHandler+0x256>
 80127d4:	4620      	mov	r0, r4
 80127d6:	e8bd 41f0 	ldmia.w	sp!, {r4, r5, r6, r7, r8, lr}
 80127da:	f000 ba12 	b.w	8012c02 <HAL_UARTEx_TxFifoEmptyCallback>
 80127de:	01d3      	lsls	r3, r2, #7
 80127e0:	f57f af64 	bpl.w	80126ac <HAL_UART_IRQHandler+0x124>
 80127e4:	2900      	cmp	r1, #0
 80127e6:	f6bf af61 	bge.w	80126ac <HAL_UART_IRQHandler+0x124>
 80127ea:	4620      	mov	r0, r4
 80127ec:	e8bd 41f0 	ldmia.w	sp!, {r4, r5, r6, r7, r8, lr}
 80127f0:	f000 ba06 	b.w	8012c00 <HAL_UARTEx_RxFifoFullCallback>
 80127f4:	10000001 	.word	0x10000001
 80127f8:	04000120 	.word	0x04000120
 80127fc:	08012573 	.word	0x08012573

08012800 <UART_SetConfig>:
 8012800:	b5f8      	push	{r3, r4, r5, r6, r7, lr}
 8012802:	4604      	mov	r4, r0
 8012804:	6803      	ldr	r3, [r0, #0]
 8012806:	6921      	ldr	r1, [r4, #16]
 8012808:	68a2      	ldr	r2, [r4, #8]
 801280a:	681d      	ldr	r5, [r3, #0]
 801280c:	69c0      	ldr	r0, [r0, #28]
 801280e:	430a      	orrs	r2, r1
 8012810:	6961      	ldr	r1, [r4, #20]
 8012812:	430a      	orrs	r2, r1
 8012814:	4971      	ldr	r1, [pc, #452]	; (80129dc <UART_SetConfig+0x1dc>)
 8012816:	4302      	orrs	r2, r0
 8012818:	4029      	ands	r1, r5
 801281a:	430a      	orrs	r2, r1
 801281c:	601a      	str	r2, [r3, #0]
 801281e:	685a      	ldr	r2, [r3, #4]
 8012820:	68e1      	ldr	r1, [r4, #12]
 8012822:	f422 5240 	bic.w	r2, r2, #12288	; 0x3000
 8012826:	430a      	orrs	r2, r1
 8012828:	605a      	str	r2, [r3, #4]
 801282a:	4a6d      	ldr	r2, [pc, #436]	; (80129e0 <UART_SetConfig+0x1e0>)
 801282c:	69a1      	ldr	r1, [r4, #24]
 801282e:	4293      	cmp	r3, r2
 8012830:	bf1c      	itt	ne
 8012832:	6a22      	ldrne	r2, [r4, #32]
 8012834:	4311      	orrne	r1, r2
 8012836:	689a      	ldr	r2, [r3, #8]
 8012838:	f022 426e 	bic.w	r2, r2, #3992977408	; 0xee000000
 801283c:	f422 6230 	bic.w	r2, r2, #2816	; 0xb00
 8012840:	430a      	orrs	r2, r1
 8012842:	609a      	str	r2, [r3, #8]
 8012844:	6ada      	ldr	r2, [r3, #44]	; 0x2c
 8012846:	6a61      	ldr	r1, [r4, #36]	; 0x24
 8012848:	f022 020f 	bic.w	r2, r2, #15
 801284c:	430a      	orrs	r2, r1
 801284e:	62da      	str	r2, [r3, #44]	; 0x2c
 8012850:	4a64      	ldr	r2, [pc, #400]	; (80129e4 <UART_SetConfig+0x1e4>)
 8012852:	4293      	cmp	r3, r2
 8012854:	d118      	bne.n	8012888 <UART_SetConfig+0x88>
 8012856:	f04f 43b0 	mov.w	r3, #1476395008	; 0x58000000
 801285a:	f8d3 3088 	ldr.w	r3, [r3, #136]	; 0x88
 801285e:	f003 0303 	and.w	r3, r3, #3
 8012862:	3b01      	subs	r3, #1
 8012864:	2b02      	cmp	r3, #2
 8012866:	f200 8095 	bhi.w	8012994 <UART_SetConfig+0x194>
 801286a:	4a5f      	ldr	r2, [pc, #380]	; (80129e8 <UART_SetConfig+0x1e8>)
 801286c:	5cd3      	ldrb	r3, [r2, r3]
 801286e:	f5b0 4f00 	cmp.w	r0, #32768	; 0x8000
 8012872:	f103 33ff 	add.w	r3, r3, #4294967295	; 0xffffffff
 8012876:	d056      	beq.n	8012926 <UART_SetConfig+0x126>
 8012878:	2b07      	cmp	r3, #7
 801287a:	d816      	bhi.n	80128aa <UART_SetConfig+0xaa>
 801287c:	e8df f003 	tbb	[pc, r3]
 8012880:	85158880 	.word	0x85158880
 8012884:	6d151515 	.word	0x6d151515
 8012888:	4a55      	ldr	r2, [pc, #340]	; (80129e0 <UART_SetConfig+0x1e0>)
 801288a:	4293      	cmp	r3, r2
 801288c:	d10d      	bne.n	80128aa <UART_SetConfig+0xaa>
 801288e:	f04f 43b0 	mov.w	r3, #1476395008	; 0x58000000
 8012892:	f8d3 3088 	ldr.w	r3, [r3, #136]	; 0x88
 8012896:	f403 6340 	and.w	r3, r3, #3072	; 0xc00
 801289a:	f5b3 6f00 	cmp.w	r3, #2048	; 0x800
 801289e:	d01a      	beq.n	80128d6 <UART_SetConfig+0xd6>
 80128a0:	d805      	bhi.n	80128ae <UART_SetConfig+0xae>
 80128a2:	b153      	cbz	r3, 80128ba <UART_SetConfig+0xba>
 80128a4:	f5b3 6f80 	cmp.w	r3, #1024	; 0x400
 80128a8:	d012      	beq.n	80128d0 <UART_SetConfig+0xd0>
 80128aa:	2001      	movs	r0, #1
 80128ac:	e009      	b.n	80128c2 <UART_SetConfig+0xc2>
 80128ae:	f5b3 6f40 	cmp.w	r3, #3072	; 0xc00
 80128b2:	d1fa      	bne.n	80128aa <UART_SetConfig+0xaa>
 80128b4:	f44f 4000 	mov.w	r0, #32768	; 0x8000
 80128b8:	e00e      	b.n	80128d8 <UART_SetConfig+0xd8>
 80128ba:	f7ff fd8d 	bl	80123d8 <HAL_RCC_GetPCLK1Freq>
 80128be:	b958      	cbnz	r0, 80128d8 <UART_SetConfig+0xd8>
 80128c0:	2000      	movs	r0, #0
 80128c2:	f04f 1301 	mov.w	r3, #65537	; 0x10001
 80128c6:	66a3      	str	r3, [r4, #104]	; 0x68
 80128c8:	2300      	movs	r3, #0
 80128ca:	e9c4 331c 	strd	r3, r3, [r4, #112]	; 0x70
 80128ce:	bdf8      	pop	{r3, r4, r5, r6, r7, pc}
 80128d0:	f7ff fd20 	bl	8012314 <HAL_RCC_GetSysClockFreq>
 80128d4:	e7f3      	b.n	80128be <UART_SetConfig+0xbe>
 80128d6:	4845      	ldr	r0, [pc, #276]	; (80129ec <UART_SetConfig+0x1ec>)
 80128d8:	6865      	ldr	r5, [r4, #4]
 80128da:	4b45      	ldr	r3, [pc, #276]	; (80129f0 <UART_SetConfig+0x1f0>)
 80128dc:	6a62      	ldr	r2, [r4, #36]	; 0x24
 80128de:	eb05 0145 	add.w	r1, r5, r5, lsl #1
 80128e2:	f833 2012 	ldrh.w	r2, [r3, r2, lsl #1]
 80128e6:	fbb0 f3f2 	udiv	r3, r0, r2
 80128ea:	4299      	cmp	r1, r3
 80128ec:	d8dd      	bhi.n	80128aa <UART_SetConfig+0xaa>
 80128ee:	ebb3 3f05 	cmp.w	r3, r5, lsl #12
 80128f2:	d8da      	bhi.n	80128aa <UART_SetConfig+0xaa>
 80128f4:	2300      	movs	r3, #0
 80128f6:	2100      	movs	r1, #0
 80128f8:	f7fd fc40 	bl	801017c <__aeabi_uldivmod>
 80128fc:	020f      	lsls	r7, r1, #8
 80128fe:	ea47 6710 	orr.w	r7, r7, r0, lsr #24
 8012902:	0206      	lsls	r6, r0, #8
 8012904:	0868      	lsrs	r0, r5, #1
 8012906:	1830      	adds	r0, r6, r0
 8012908:	462a      	mov	r2, r5
 801290a:	f04f 0300 	mov.w	r3, #0
 801290e:	f147 0100 	adc.w	r1, r7, #0
 8012912:	f7fd fc33 	bl	801017c <__aeabi_uldivmod>
 8012916:	4b37      	ldr	r3, [pc, #220]	; (80129f4 <UART_SetConfig+0x1f4>)
 8012918:	f5a0 7240 	sub.w	r2, r0, #768	; 0x300
 801291c:	429a      	cmp	r2, r3
 801291e:	d8c4      	bhi.n	80128aa <UART_SetConfig+0xaa>
 8012920:	6823      	ldr	r3, [r4, #0]
 8012922:	60d8      	str	r0, [r3, #12]
 8012924:	e7cc      	b.n	80128c0 <UART_SetConfig+0xc0>
 8012926:	2b07      	cmp	r3, #7
 8012928:	d8bf      	bhi.n	80128aa <UART_SetConfig+0xaa>
 801292a:	a201      	add	r2, pc, #4	; (adr r2, 8012930 <UART_SetConfig+0x130>)
 801292c:	f852 f023 	ldr.w	pc, [r2, r3, lsl #2]
 8012930:	0801299b 	.word	0x0801299b
 8012934:	08012957 	.word	0x08012957
 8012938:	080128ab 	.word	0x080128ab
 801293c:	08012951 	.word	0x08012951
 8012940:	080128ab 	.word	0x080128ab
 8012944:	080128ab 	.word	0x080128ab
 8012948:	080128ab 	.word	0x080128ab
 801294c:	080129a3 	.word	0x080129a3
 8012950:	f7ff fce0 	bl	8012314 <HAL_RCC_GetSysClockFreq>
 8012954:	e023      	b.n	801299e <UART_SetConfig+0x19e>
 8012956:	4825      	ldr	r0, [pc, #148]	; (80129ec <UART_SetConfig+0x1ec>)
 8012958:	e023      	b.n	80129a2 <UART_SetConfig+0x1a2>
 801295a:	f44f 4000 	mov.w	r0, #32768	; 0x8000
 801295e:	6863      	ldr	r3, [r4, #4]
 8012960:	6a61      	ldr	r1, [r4, #36]	; 0x24
 8012962:	4a23      	ldr	r2, [pc, #140]	; (80129f0 <UART_SetConfig+0x1f0>)
 8012964:	f832 2011 	ldrh.w	r2, [r2, r1, lsl #1]
 8012968:	fbb0 f0f2 	udiv	r0, r0, r2
 801296c:	eb00 0053 	add.w	r0, r0, r3, lsr #1
 8012970:	fbb0 f0f3 	udiv	r0, r0, r3
 8012974:	b280      	uxth	r0, r0
 8012976:	f1a0 0210 	sub.w	r2, r0, #16
 801297a:	f64f 73ef 	movw	r3, #65519	; 0xffef
 801297e:	e7cd      	b.n	801291c <UART_SetConfig+0x11c>
 8012980:	f7ff fd3c 	bl	80123fc <HAL_RCC_GetPCLK2Freq>
 8012984:	2800      	cmp	r0, #0
 8012986:	d09b      	beq.n	80128c0 <UART_SetConfig+0xc0>
 8012988:	e7e9      	b.n	801295e <UART_SetConfig+0x15e>
 801298a:	f7ff fcc3 	bl	8012314 <HAL_RCC_GetSysClockFreq>
 801298e:	e7f9      	b.n	8012984 <UART_SetConfig+0x184>
 8012990:	4816      	ldr	r0, [pc, #88]	; (80129ec <UART_SetConfig+0x1ec>)
 8012992:	e7e4      	b.n	801295e <UART_SetConfig+0x15e>
 8012994:	f5b0 4f00 	cmp.w	r0, #32768	; 0x8000
 8012998:	d1f2      	bne.n	8012980 <UART_SetConfig+0x180>
 801299a:	f7ff fd2f 	bl	80123fc <HAL_RCC_GetPCLK2Freq>
 801299e:	2800      	cmp	r0, #0
 80129a0:	d08e      	beq.n	80128c0 <UART_SetConfig+0xc0>
 80129a2:	6862      	ldr	r2, [r4, #4]
 80129a4:	6a61      	ldr	r1, [r4, #36]	; 0x24
 80129a6:	4b12      	ldr	r3, [pc, #72]	; (80129f0 <UART_SetConfig+0x1f0>)
 80129a8:	f833 3011 	ldrh.w	r3, [r3, r1, lsl #1]
 80129ac:	fbb0 f3f3 	udiv	r3, r0, r3
 80129b0:	0850      	lsrs	r0, r2, #1
 80129b2:	eb00 0043 	add.w	r0, r0, r3, lsl #1
 80129b6:	fbb0 f0f2 	udiv	r0, r0, r2
 80129ba:	b283      	uxth	r3, r0
 80129bc:	f1a3 0110 	sub.w	r1, r3, #16
 80129c0:	f64f 72ef 	movw	r2, #65519	; 0xffef
 80129c4:	4291      	cmp	r1, r2
 80129c6:	f63f af70 	bhi.w	80128aa <UART_SetConfig+0xaa>
 80129ca:	f020 000f 	bic.w	r0, r0, #15
 80129ce:	6822      	ldr	r2, [r4, #0]
 80129d0:	b280      	uxth	r0, r0
 80129d2:	f3c3 0342 	ubfx	r3, r3, #1, #3
 80129d6:	4318      	orrs	r0, r3
 80129d8:	60d0      	str	r0, [r2, #12]
 80129da:	e771      	b.n	80128c0 <UART_SetConfig+0xc0>
 80129dc:	cfff69f3 	.word	0xcfff69f3
 80129e0:	40008000 	.word	0x40008000
 80129e4:	40013800 	.word	0x40013800
 80129e8:	080140b8 	.word	0x080140b8
 80129ec:	00f42400 	.word	0x00f42400
 80129f0:	080140bc 	.word	0x080140bc
 80129f4:	000ffcff 	.word	0x000ffcff

080129f8 <UART_AdvFeatureConfig>:
 80129f8:	6a83      	ldr	r3, [r0, #40]	; 0x28
 80129fa:	07da      	lsls	r2, r3, #31
 80129fc:	b510      	push	{r4, lr}
 80129fe:	d506      	bpl.n	8012a0e <UART_AdvFeatureConfig+0x16>
 8012a00:	6801      	ldr	r1, [r0, #0]
 8012a02:	6ac4      	ldr	r4, [r0, #44]	; 0x2c
 8012a04:	684a      	ldr	r2, [r1, #4]
 8012a06:	f422 3200 	bic.w	r2, r2, #131072	; 0x20000
 8012a0a:	4322      	orrs	r2, r4
 8012a0c:	604a      	str	r2, [r1, #4]
 8012a0e:	079c      	lsls	r4, r3, #30
 8012a10:	d506      	bpl.n	8012a20 <UART_AdvFeatureConfig+0x28>
 8012a12:	6801      	ldr	r1, [r0, #0]
 8012a14:	6b04      	ldr	r4, [r0, #48]	; 0x30
 8012a16:	684a      	ldr	r2, [r1, #4]
 8012a18:	f422 3280 	bic.w	r2, r2, #65536	; 0x10000
 8012a1c:	4322      	orrs	r2, r4
 8012a1e:	604a      	str	r2, [r1, #4]
 8012a20:	0759      	lsls	r1, r3, #29
 8012a22:	d506      	bpl.n	8012a32 <UART_AdvFeatureConfig+0x3a>
 8012a24:	6801      	ldr	r1, [r0, #0]
 8012a26:	6b44      	ldr	r4, [r0, #52]	; 0x34
 8012a28:	684a      	ldr	r2, [r1, #4]
 8012a2a:	f422 2280 	bic.w	r2, r2, #262144	; 0x40000
 8012a2e:	4322      	orrs	r2, r4
 8012a30:	604a      	str	r2, [r1, #4]
 8012a32:	071a      	lsls	r2, r3, #28
 8012a34:	d506      	bpl.n	8012a44 <UART_AdvFeatureConfig+0x4c>
 8012a36:	6801      	ldr	r1, [r0, #0]
 8012a38:	6b84      	ldr	r4, [r0, #56]	; 0x38
 8012a3a:	684a      	ldr	r2, [r1, #4]
 8012a3c:	f422 4200 	bic.w	r2, r2, #32768	; 0x8000
 8012a40:	4322      	orrs	r2, r4
 8012a42:	604a      	str	r2, [r1, #4]
 8012a44:	06dc      	lsls	r4, r3, #27
 8012a46:	d506      	bpl.n	8012a56 <UART_AdvFeatureConfig+0x5e>
 8012a48:	6801      	ldr	r1, [r0, #0]
 8012a4a:	6bc4      	ldr	r4, [r0, #60]	; 0x3c
 8012a4c:	688a      	ldr	r2, [r1, #8]
 8012a4e:	f422 5280 	bic.w	r2, r2, #4096	; 0x1000
 8012a52:	4322      	orrs	r2, r4
 8012a54:	608a      	str	r2, [r1, #8]
 8012a56:	0699      	lsls	r1, r3, #26
 8012a58:	d506      	bpl.n	8012a68 <UART_AdvFeatureConfig+0x70>
 8012a5a:	6801      	ldr	r1, [r0, #0]
 8012a5c:	6c04      	ldr	r4, [r0, #64]	; 0x40
 8012a5e:	688a      	ldr	r2, [r1, #8]
 8012a60:	f422 5200 	bic.w	r2, r2, #8192	; 0x2000
 8012a64:	4322      	orrs	r2, r4
 8012a66:	608a      	str	r2, [r1, #8]
 8012a68:	065a      	lsls	r2, r3, #25
 8012a6a:	d50f      	bpl.n	8012a8c <UART_AdvFeatureConfig+0x94>
 8012a6c:	6801      	ldr	r1, [r0, #0]
 8012a6e:	6c44      	ldr	r4, [r0, #68]	; 0x44
 8012a70:	684a      	ldr	r2, [r1, #4]
 8012a72:	f422 1280 	bic.w	r2, r2, #1048576	; 0x100000
 8012a76:	4322      	orrs	r2, r4
 8012a78:	f5b4 1f80 	cmp.w	r4, #1048576	; 0x100000
 8012a7c:	604a      	str	r2, [r1, #4]
 8012a7e:	d105      	bne.n	8012a8c <UART_AdvFeatureConfig+0x94>
 8012a80:	684a      	ldr	r2, [r1, #4]
 8012a82:	6c84      	ldr	r4, [r0, #72]	; 0x48
 8012a84:	f422 02c0 	bic.w	r2, r2, #6291456	; 0x600000
 8012a88:	4322      	orrs	r2, r4
 8012a8a:	604a      	str	r2, [r1, #4]
 8012a8c:	061b      	lsls	r3, r3, #24
 8012a8e:	d506      	bpl.n	8012a9e <UART_AdvFeatureConfig+0xa6>
 8012a90:	6802      	ldr	r2, [r0, #0]
 8012a92:	6cc1      	ldr	r1, [r0, #76]	; 0x4c
 8012a94:	6853      	ldr	r3, [r2, #4]
 8012a96:	f423 2300 	bic.w	r3, r3, #524288	; 0x80000
 8012a9a:	430b      	orrs	r3, r1
 8012a9c:	6053      	str	r3, [r2, #4]
 8012a9e:	bd10      	pop	{r4, pc}

08012aa0 <UART_WaitOnFlagUntilTimeout>:
 8012aa0:	e92d 41f0 	stmdb	sp!, {r4, r5, r6, r7, r8, lr}
 8012aa4:	f8dd 8018 	ldr.w	r8, [sp, #24]
 8012aa8:	4604      	mov	r4, r0
 8012aaa:	460e      	mov	r6, r1
 8012aac:	4615      	mov	r5, r2
 8012aae:	461f      	mov	r7, r3
 8012ab0:	6822      	ldr	r2, [r4, #0]
 8012ab2:	69d3      	ldr	r3, [r2, #28]
 8012ab4:	ea36 0303 	bics.w	r3, r6, r3
 8012ab8:	bf0c      	ite	eq
 8012aba:	2301      	moveq	r3, #1
 8012abc:	2300      	movne	r3, #0
 8012abe:	42ab      	cmp	r3, r5
 8012ac0:	d001      	beq.n	8012ac6 <UART_WaitOnFlagUntilTimeout+0x26>
 8012ac2:	2000      	movs	r0, #0
 8012ac4:	e01c      	b.n	8012b00 <UART_WaitOnFlagUntilTimeout+0x60>
 8012ac6:	f1b8 3fff 	cmp.w	r8, #4294967295	; 0xffffffff
 8012aca:	d0f2      	beq.n	8012ab2 <UART_WaitOnFlagUntilTimeout+0x12>
 8012acc:	f7ff f816 	bl	8011afc <HAL_GetTick>
 8012ad0:	1bc0      	subs	r0, r0, r7
 8012ad2:	4540      	cmp	r0, r8
 8012ad4:	6820      	ldr	r0, [r4, #0]
 8012ad6:	6803      	ldr	r3, [r0, #0]
 8012ad8:	d802      	bhi.n	8012ae0 <UART_WaitOnFlagUntilTimeout+0x40>
 8012ada:	f1b8 0f00 	cmp.w	r8, #0
 8012ade:	d111      	bne.n	8012b04 <UART_WaitOnFlagUntilTimeout+0x64>
 8012ae0:	f423 73d0 	bic.w	r3, r3, #416	; 0x1a0
 8012ae4:	6003      	str	r3, [r0, #0]
 8012ae6:	6883      	ldr	r3, [r0, #8]
 8012ae8:	f023 0301 	bic.w	r3, r3, #1
 8012aec:	6083      	str	r3, [r0, #8]
 8012aee:	2320      	movs	r3, #32
 8012af0:	f8c4 3084 	str.w	r3, [r4, #132]	; 0x84
 8012af4:	f8c4 3088 	str.w	r3, [r4, #136]	; 0x88
 8012af8:	2300      	movs	r3, #0
 8012afa:	f884 3080 	strb.w	r3, [r4, #128]	; 0x80
 8012afe:	2003      	movs	r0, #3
 8012b00:	e8bd 81f0 	ldmia.w	sp!, {r4, r5, r6, r7, r8, pc}
 8012b04:	075a      	lsls	r2, r3, #29
 8012b06:	d5d3      	bpl.n	8012ab0 <UART_WaitOnFlagUntilTimeout+0x10>
 8012b08:	69c3      	ldr	r3, [r0, #28]
 8012b0a:	051b      	lsls	r3, r3, #20
 8012b0c:	d5d0      	bpl.n	8012ab0 <UART_WaitOnFlagUntilTimeout+0x10>
 8012b0e:	f44f 6300 	mov.w	r3, #2048	; 0x800
 8012b12:	6203      	str	r3, [r0, #32]
 8012b14:	6803      	ldr	r3, [r0, #0]
 8012b16:	f423 73d0 	bic.w	r3, r3, #416	; 0x1a0
 8012b1a:	6003      	str	r3, [r0, #0]
 8012b1c:	6883      	ldr	r3, [r0, #8]
 8012b1e:	f023 0301 	bic.w	r3, r3, #1
 8012b22:	6083      	str	r3, [r0, #8]
 8012b24:	2320      	movs	r3, #32
 8012b26:	f8c4 3084 	str.w	r3, [r4, #132]	; 0x84
 8012b2a:	f8c4 3088 	str.w	r3, [r4, #136]	; 0x88
 8012b2e:	f8c4 308c 	str.w	r3, [r4, #140]	; 0x8c
 8012b32:	e7e1      	b.n	8012af8 <UART_WaitOnFlagUntilTimeout+0x58>

08012b34 <UART_CheckIdleState>:
 8012b34:	b530      	push	{r4, r5, lr}
 8012b36:	4604      	mov	r4, r0
 8012b38:	2500      	movs	r5, #0
 8012b3a:	b085      	sub	sp, #20
 8012b3c:	f8c0 508c 	str.w	r5, [r0, #140]	; 0x8c
 8012b40:	f7fe ffdc 	bl	8011afc <HAL_GetTick>
 8012b44:	6822      	ldr	r2, [r4, #0]
 8012b46:	6812      	ldr	r2, [r2, #0]
 8012b48:	0711      	lsls	r1, r2, #28
 8012b4a:	4603      	mov	r3, r0
 8012b4c:	d417      	bmi.n	8012b7e <UART_CheckIdleState+0x4a>
 8012b4e:	6822      	ldr	r2, [r4, #0]
 8012b50:	6812      	ldr	r2, [r2, #0]
 8012b52:	0752      	lsls	r2, r2, #29
 8012b54:	d509      	bpl.n	8012b6a <UART_CheckIdleState+0x36>
 8012b56:	f06f 427e 	mvn.w	r2, #4261412864	; 0xfe000000
 8012b5a:	9200      	str	r2, [sp, #0]
 8012b5c:	f44f 0180 	mov.w	r1, #4194304	; 0x400000
 8012b60:	2200      	movs	r2, #0
 8012b62:	4620      	mov	r0, r4
 8012b64:	f7ff ff9c 	bl	8012aa0 <UART_WaitOnFlagUntilTimeout>
 8012b68:	b9b0      	cbnz	r0, 8012b98 <UART_CheckIdleState+0x64>
 8012b6a:	2320      	movs	r3, #32
 8012b6c:	2000      	movs	r0, #0
 8012b6e:	f8c4 3084 	str.w	r3, [r4, #132]	; 0x84
 8012b72:	f884 0080 	strb.w	r0, [r4, #128]	; 0x80
 8012b76:	f8c4 3088 	str.w	r3, [r4, #136]	; 0x88
 8012b7a:	66e0      	str	r0, [r4, #108]	; 0x6c
 8012b7c:	e00d      	b.n	8012b9a <UART_CheckIdleState+0x66>
 8012b7e:	f06f 427e 	mvn.w	r2, #4261412864	; 0xfe000000
 8012b82:	9200      	str	r2, [sp, #0]
 8012b84:	9003      	str	r0, [sp, #12]
 8012b86:	462a      	mov	r2, r5
 8012b88:	f44f 1100 	mov.w	r1, #2097152	; 0x200000
 8012b8c:	4620      	mov	r0, r4
 8012b8e:	f7ff ff87 	bl	8012aa0 <UART_WaitOnFlagUntilTimeout>
 8012b92:	9b03      	ldr	r3, [sp, #12]
 8012b94:	2800      	cmp	r0, #0
 8012b96:	d0da      	beq.n	8012b4e <UART_CheckIdleState+0x1a>
 8012b98:	2003      	movs	r0, #3
 8012b9a:	b005      	add	sp, #20
 8012b9c:	bd30      	pop	{r4, r5, pc}

08012b9e <HAL_UART_Init>:
 8012b9e:	b510      	push	{r4, lr}
 8012ba0:	4604      	mov	r4, r0
 8012ba2:	b350      	cbz	r0, 8012bfa <HAL_UART_Init+0x5c>
 8012ba4:	f8d0 3084 	ldr.w	r3, [r0, #132]	; 0x84
 8012ba8:	b91b      	cbnz	r3, 8012bb2 <HAL_UART_Init+0x14>
 8012baa:	f880 3080 	strb.w	r3, [r0, #128]	; 0x80
 8012bae:	f7fe f9d7 	bl	8010f60 <HAL_UART_MspInit>
 8012bb2:	6822      	ldr	r2, [r4, #0]
 8012bb4:	2324      	movs	r3, #36	; 0x24
 8012bb6:	f8c4 3084 	str.w	r3, [r4, #132]	; 0x84
 8012bba:	6813      	ldr	r3, [r2, #0]
 8012bbc:	f023 0301 	bic.w	r3, r3, #1
 8012bc0:	6013      	str	r3, [r2, #0]
 8012bc2:	4620      	mov	r0, r4
 8012bc4:	f7ff fe1c 	bl	8012800 <UART_SetConfig>
 8012bc8:	2801      	cmp	r0, #1
 8012bca:	d016      	beq.n	8012bfa <HAL_UART_Init+0x5c>
 8012bcc:	6aa3      	ldr	r3, [r4, #40]	; 0x28
 8012bce:	b113      	cbz	r3, 8012bd6 <HAL_UART_Init+0x38>
 8012bd0:	4620      	mov	r0, r4
 8012bd2:	f7ff ff11 	bl	80129f8 <UART_AdvFeatureConfig>
 8012bd6:	6823      	ldr	r3, [r4, #0]
 8012bd8:	685a      	ldr	r2, [r3, #4]
 8012bda:	f422 4290 	bic.w	r2, r2, #18432	; 0x4800
 8012bde:	605a      	str	r2, [r3, #4]
 8012be0:	689a      	ldr	r2, [r3, #8]
 8012be2:	f022 022a 	bic.w	r2, r2, #42	; 0x2a
 8012be6:	609a      	str	r2, [r3, #8]
 8012be8:	681a      	ldr	r2, [r3, #0]
 8012bea:	f042 0201 	orr.w	r2, r2, #1
 8012bee:	4620      	mov	r0, r4
 8012bf0:	601a      	str	r2, [r3, #0]
 8012bf2:	e8bd 4010 	ldmia.w	sp!, {r4, lr}
 8012bf6:	f7ff bf9d 	b.w	8012b34 <UART_CheckIdleState>
 8012bfa:	2001      	movs	r0, #1
 8012bfc:	bd10      	pop	{r4, pc}

08012bfe <HAL_UARTEx_WakeupCallback>:
 8012bfe:	4770      	bx	lr

08012c00 <HAL_UARTEx_RxFifoFullCallback>:
 8012c00:	4770      	bx	lr

08012c02 <HAL_UARTEx_TxFifoEmptyCallback>:
 8012c02:	4770      	bx	lr

08012c04 <OTAS_Event_Handler>:
 8012c04:	b51f      	push	{r0, r1, r2, r3, r4, lr}
 8012c06:	7843      	ldrb	r3, [r0, #1]
 8012c08:	2bff      	cmp	r3, #255	; 0xff
 8012c0a:	d152      	bne.n	8012cb2 <OTAS_Event_Handler+0xae>
 8012c0c:	f8b0 3003 	ldrh.w	r3, [r0, #3]
 8012c10:	f640 4213 	movw	r2, #3091	; 0xc13
 8012c14:	4293      	cmp	r3, r2
 8012c16:	d039      	beq.n	8012c8c <OTAS_Event_Handler+0x88>
 8012c18:	f640 4217 	movw	r2, #3095	; 0xc17
 8012c1c:	4293      	cmp	r3, r2
 8012c1e:	d02d      	beq.n	8012c7c <OTAS_Event_Handler+0x78>
 8012c20:	f640 4201 	movw	r2, #3073	; 0xc01
 8012c24:	4293      	cmp	r3, r2
 8012c26:	d144      	bne.n	8012cb2 <OTAS_Event_Handler+0xae>
 8012c28:	4923      	ldr	r1, [pc, #140]	; (8012cb8 <OTAS_Event_Handler+0xb4>)
 8012c2a:	f8b0 2007 	ldrh.w	r2, [r0, #7]
 8012c2e:	884b      	ldrh	r3, [r1, #2]
 8012c30:	3301      	adds	r3, #1
 8012c32:	429a      	cmp	r2, r3
 8012c34:	d10e      	bne.n	8012c54 <OTAS_Event_Handler+0x50>
 8012c36:	2300      	movs	r3, #0
 8012c38:	f88d 300c 	strb.w	r3, [sp, #12]
 8012c3c:	f100 030d 	add.w	r3, r0, #13
 8012c40:	9302      	str	r3, [sp, #8]
 8012c42:	f8b0 300b 	ldrh.w	r3, [r0, #11]
 8012c46:	f88d 300d 	strb.w	r3, [sp, #13]
 8012c4a:	a802      	add	r0, sp, #8
 8012c4c:	f7fe fc42 	bl	80114d4 <OTAS_STM_Notification>
 8012c50:	2401      	movs	r4, #1
 8012c52:	e010      	b.n	8012c76 <OTAS_Event_Handler+0x72>
 8012c54:	88cb      	ldrh	r3, [r1, #6]
 8012c56:	3301      	adds	r3, #1
 8012c58:	429a      	cmp	r2, r3
 8012c5a:	d12a      	bne.n	8012cb2 <OTAS_Event_Handler+0xae>
 8012c5c:	f100 030d 	add.w	r3, r0, #13
 8012c60:	2401      	movs	r4, #1
 8012c62:	f88d 400c 	strb.w	r4, [sp, #12]
 8012c66:	9302      	str	r3, [sp, #8]
 8012c68:	f8b0 300b 	ldrh.w	r3, [r0, #11]
 8012c6c:	f88d 300d 	strb.w	r3, [sp, #13]
 8012c70:	a802      	add	r0, sp, #8
 8012c72:	f7fe fc2f 	bl	80114d4 <OTAS_STM_Notification>
 8012c76:	4620      	mov	r0, r4
 8012c78:	b004      	add	sp, #16
 8012c7a:	bd10      	pop	{r4, pc}
 8012c7c:	4a0e      	ldr	r2, [pc, #56]	; (8012cb8 <OTAS_Event_Handler+0xb4>)
 8012c7e:	7a14      	ldrb	r4, [r2, #8]
 8012c80:	2c00      	cmp	r4, #0
 8012c82:	d0f8      	beq.n	8012c76 <OTAS_Event_Handler+0x72>
 8012c84:	2300      	movs	r3, #0
 8012c86:	7213      	strb	r3, [r2, #8]
 8012c88:	2303      	movs	r3, #3
 8012c8a:	e7d5      	b.n	8012c38 <OTAS_Event_Handler+0x34>
 8012c8c:	4b0a      	ldr	r3, [pc, #40]	; (8012cb8 <OTAS_Event_Handler+0xb4>)
 8012c8e:	f8b0 1007 	ldrh.w	r1, [r0, #7]
 8012c92:	88db      	ldrh	r3, [r3, #6]
 8012c94:	3301      	adds	r3, #1
 8012c96:	4299      	cmp	r1, r3
 8012c98:	d10b      	bne.n	8012cb2 <OTAS_Event_Handler+0xae>
 8012c9a:	f100 030a 	add.w	r3, r0, #10
 8012c9e:	9301      	str	r3, [sp, #4]
 8012ca0:	7a43      	ldrb	r3, [r0, #9]
 8012ca2:	9300      	str	r3, [sp, #0]
 8012ca4:	2300      	movs	r3, #0
 8012ca6:	461a      	mov	r2, r3
 8012ca8:	f8b0 0005 	ldrh.w	r0, [r0, #5]
 8012cac:	f000 faee 	bl	801328c <aci_gatt_write_resp>
 8012cb0:	e7ce      	b.n	8012c50 <OTAS_Event_Handler+0x4c>
 8012cb2:	2400      	movs	r4, #0
 8012cb4:	e7df      	b.n	8012c76 <OTAS_Event_Handler+0x72>
 8012cb6:	bf00      	nop
 8012cb8:	200010e8 	.word	0x200010e8

08012cbc <OTAS_STM_Init>:
 8012cbc:	e92d 41f0 	stmdb	sp!, {r4, r5, r6, r7, r8, lr}
 8012cc0:	b086      	sub	sp, #24
 8012cc2:	4d20      	ldr	r5, [pc, #128]	; (8012d44 <OTAS_STM_Init+0x88>)
 8012cc4:	4820      	ldr	r0, [pc, #128]	; (8012d48 <OTAS_STM_Init+0x8c>)
 8012cc6:	f000 f899 	bl	8012dfc <SVCCTL_RegisterSvcHandler>
 8012cca:	4920      	ldr	r1, [pc, #128]	; (8012d4c <OTAS_STM_Init+0x90>)
 8012ccc:	9500      	str	r5, [sp, #0]
 8012cce:	2308      	movs	r3, #8
 8012cd0:	2201      	movs	r2, #1
 8012cd2:	2002      	movs	r0, #2
 8012cd4:	f000 fa00 	bl	80130d8 <aci_gatt_add_service>
 8012cd8:	462b      	mov	r3, r5
 8012cda:	2400      	movs	r4, #0
 8012cdc:	f833 0b02 	ldrh.w	r0, [r3], #2
 8012ce0:	9305      	str	r3, [sp, #20]
 8012ce2:	270a      	movs	r7, #10
 8012ce4:	f04f 0801 	mov.w	r8, #1
 8012ce8:	2604      	movs	r6, #4
 8012cea:	4633      	mov	r3, r6
 8012cec:	e9cd 7403 	strd	r7, r4, [sp, #12]
 8012cf0:	e9cd 4801 	strd	r4, r8, [sp, #4]
 8012cf4:	4a16      	ldr	r2, [pc, #88]	; (8012d50 <OTAS_STM_Init+0x94>)
 8012cf6:	9600      	str	r6, [sp, #0]
 8012cf8:	2102      	movs	r1, #2
 8012cfa:	f000 fa3d 	bl	8013178 <aci_gatt_add_char>
 8012cfe:	462b      	mov	r3, r5
 8012d00:	4a14      	ldr	r2, [pc, #80]	; (8012d54 <OTAS_STM_Init+0x98>)
 8012d02:	f833 0b04 	ldrh.w	r0, [r3], #4
 8012d06:	9401      	str	r4, [sp, #4]
 8012d08:	e9cd 4304 	strd	r4, r3, [sp, #16]
 8012d0c:	2320      	movs	r3, #32
 8012d0e:	9300      	str	r3, [sp, #0]
 8012d10:	e9cd 4702 	strd	r4, r7, [sp, #8]
 8012d14:	4643      	mov	r3, r8
 8012d16:	2102      	movs	r1, #2
 8012d18:	f000 fa2e 	bl	8013178 <aci_gatt_add_char>
 8012d1c:	462b      	mov	r3, r5
 8012d1e:	4a0e      	ldr	r2, [pc, #56]	; (8012d58 <OTAS_STM_Init+0x9c>)
 8012d20:	f833 0b06 	ldrh.w	r0, [r3], #6
 8012d24:	9703      	str	r7, [sp, #12]
 8012d26:	e9cd 8304 	strd	r8, r3, [sp, #16]
 8012d2a:	2303      	movs	r3, #3
 8012d2c:	e9cd 4301 	strd	r4, r3, [sp, #4]
 8012d30:	9600      	str	r6, [sp, #0]
 8012d32:	2314      	movs	r3, #20
 8012d34:	2102      	movs	r1, #2
 8012d36:	f000 fa1f 	bl	8013178 <aci_gatt_add_char>
 8012d3a:	722c      	strb	r4, [r5, #8]
 8012d3c:	b006      	add	sp, #24
 8012d3e:	e8bd 81f0 	ldmia.w	sp!, {r4, r5, r6, r7, r8, pc}
 8012d42:	bf00      	nop
 8012d44:	200010e8 	.word	0x200010e8
 8012d48:	08012c05 	.word	0x08012c05
 8012d4c:	080140d4 	.word	0x080140d4
 8012d50:	080140e4 	.word	0x080140e4
 8012d54:	080140f4 	.word	0x080140f4
 8012d58:	08014104 	.word	0x08014104

08012d5c <OTAS_STM_UpdateChar>:
 8012d5c:	b507      	push	{r0, r1, r2, lr}
 8012d5e:	4806      	ldr	r0, [pc, #24]	; (8012d78 <OTAS_STM_UpdateChar+0x1c>)
 8012d60:	2301      	movs	r3, #1
 8012d62:	7203      	strb	r3, [r0, #8]
 8012d64:	9100      	str	r1, [sp, #0]
 8012d66:	8881      	ldrh	r1, [r0, #4]
 8012d68:	8800      	ldrh	r0, [r0, #0]
 8012d6a:	2200      	movs	r2, #0
 8012d6c:	f000 fa5e 	bl	801322c <aci_gatt_update_char_value>
 8012d70:	b003      	add	sp, #12
 8012d72:	f85d fb04 	ldr.w	pc, [sp], #4
 8012d76:	bf00      	nop
 8012d78:	200010e8 	.word	0x200010e8

08012d7c <BAS_Init>:
 8012d7c:	4770      	bx	lr

08012d7e <BLS_Init>:
 8012d7e:	4770      	bx	lr

08012d80 <CRS_STM_Init>:
 8012d80:	4770      	bx	lr

08012d82 <DIS_Init>:
 8012d82:	4770      	bx	lr

08012d84 <EDS_STM_Init>:
 8012d84:	4770      	bx	lr

08012d86 <HIDS_Init>:
 8012d86:	4770      	bx	lr

08012d88 <HRS_Init>:
 8012d88:	4770      	bx	lr

08012d8a <HTS_Init>:
 8012d8a:	4770      	bx	lr

08012d8c <IAS_Init>:
 8012d8c:	4770      	bx	lr

08012d8e <LLS_Init>:
 8012d8e:	4770      	bx	lr

08012d90 <TPS_Init>:
 8012d90:	4770      	bx	lr

08012d92 <MOTENV_STM_Init>:
 8012d92:	4770      	bx	lr

08012d94 <P2PS_STM_Init>:
 8012d94:	4770      	bx	lr

08012d96 <MESH_Init>:
 8012d96:	4770      	bx	lr

08012d98 <BVOPUS_STM_Init>:
 8012d98:	4770      	bx	lr

08012d9a <SVCCTL_InitCustomSvc>:
 8012d9a:	4770      	bx	lr

08012d9c <SVCCTL_SvcInit>:
 8012d9c:	b508      	push	{r3, lr}
 8012d9e:	f7ff ffed 	bl	8012d7c <BAS_Init>
 8012da2:	f7ff ffec 	bl	8012d7e <BLS_Init>
 8012da6:	f7ff ffeb 	bl	8012d80 <CRS_STM_Init>
 8012daa:	f7ff ffea 	bl	8012d82 <DIS_Init>
 8012dae:	f7ff ffe9 	bl	8012d84 <EDS_STM_Init>
 8012db2:	f7ff ffe8 	bl	8012d86 <HIDS_Init>
 8012db6:	f7ff ffe7 	bl	8012d88 <HRS_Init>
 8012dba:	f7ff ffe6 	bl	8012d8a <HTS_Init>
 8012dbe:	f7ff ffe5 	bl	8012d8c <IAS_Init>
 8012dc2:	f7ff ffe4 	bl	8012d8e <LLS_Init>
 8012dc6:	f7ff ffe3 	bl	8012d90 <TPS_Init>
 8012dca:	f7ff ffe2 	bl	8012d92 <MOTENV_STM_Init>
 8012dce:	f7ff ffe1 	bl	8012d94 <P2PS_STM_Init>
 8012dd2:	f7ff ff73 	bl	8012cbc <OTAS_STM_Init>
 8012dd6:	f7ff ffdf 	bl	8012d98 <BVOPUS_STM_Init>
 8012dda:	f7ff ffdc 	bl	8012d96 <MESH_Init>
 8012dde:	f7ff ffdc 	bl	8012d9a <SVCCTL_InitCustomSvc>
 8012de2:	bd08      	pop	{r3, pc}

08012de4 <SVCCTL_Init>:
 8012de4:	b508      	push	{r3, lr}
 8012de6:	4b04      	ldr	r3, [pc, #16]	; (8012df8 <SVCCTL_Init+0x14>)
 8012de8:	2200      	movs	r2, #0
 8012dea:	771a      	strb	r2, [r3, #28]
 8012dec:	f883 2020 	strb.w	r2, [r3, #32]
 8012df0:	f7ff ffd4 	bl	8012d9c <SVCCTL_SvcInit>
 8012df4:	bd08      	pop	{r3, pc}
 8012df6:	bf00      	nop
 8012df8:	200010f4 	.word	0x200010f4

08012dfc <SVCCTL_RegisterSvcHandler>:
 8012dfc:	4a03      	ldr	r2, [pc, #12]	; (8012e0c <SVCCTL_RegisterSvcHandler+0x10>)
 8012dfe:	7f13      	ldrb	r3, [r2, #28]
 8012e00:	f842 0023 	str.w	r0, [r2, r3, lsl #2]
 8012e04:	3301      	adds	r3, #1
 8012e06:	7713      	strb	r3, [r2, #28]
 8012e08:	4770      	bx	lr
 8012e0a:	bf00      	nop
 8012e0c:	200010f4 	.word	0x200010f4

08012e10 <SVCCTL_UserEvtRx>:
 8012e10:	b570      	push	{r4, r5, r6, lr}
 8012e12:	7843      	ldrb	r3, [r0, #1]
 8012e14:	2bff      	cmp	r3, #255	; 0xff
 8012e16:	4604      	mov	r4, r0
 8012e18:	d004      	beq.n	8012e24 <SVCCTL_UserEvtRx+0x14>
 8012e1a:	4620      	mov	r0, r4
 8012e1c:	e8bd 4070 	ldmia.w	sp!, {r4, r5, r6, lr}
 8012e20:	f7fe bb2e 	b.w	8011480 <SVCCTL_App_Notification>
 8012e24:	f8b0 3003 	ldrh.w	r3, [r0, #3]
 8012e28:	f403 437f 	and.w	r3, r3, #65280	; 0xff00
 8012e2c:	f5b3 6f40 	cmp.w	r3, #3072	; 0xc00
 8012e30:	d1f3      	bne.n	8012e1a <SVCCTL_UserEvtRx+0xa>
 8012e32:	4e08      	ldr	r6, [pc, #32]	; (8012e54 <SVCCTL_UserEvtRx+0x44>)
 8012e34:	2500      	movs	r5, #0
 8012e36:	7f32      	ldrb	r2, [r6, #28]
 8012e38:	b2eb      	uxtb	r3, r5
 8012e3a:	429a      	cmp	r2, r3
 8012e3c:	d9ed      	bls.n	8012e1a <SVCCTL_UserEvtRx+0xa>
 8012e3e:	f856 3023 	ldr.w	r3, [r6, r3, lsl #2]
 8012e42:	4620      	mov	r0, r4
 8012e44:	4798      	blx	r3
 8012e46:	3501      	adds	r5, #1
 8012e48:	2800      	cmp	r0, #0
 8012e4a:	d0f4      	beq.n	8012e36 <SVCCTL_UserEvtRx+0x26>
 8012e4c:	3802      	subs	r0, #2
 8012e4e:	bf18      	it	ne
 8012e50:	2001      	movne	r0, #1
 8012e52:	bd70      	pop	{r4, r5, r6, pc}
 8012e54:	200010f4 	.word	0x200010f4

08012e58 <aci_gap_set_discoverable>:
 8012e58:	e92d 4ff0 	stmdb	sp!, {r4, r5, r6, r7, r8, r9, sl, fp, lr}
 8012e5c:	b0cb      	sub	sp, #300	; 0x12c
 8012e5e:	469c      	mov	ip, r3
 8012e60:	f89d 6154 	ldrb.w	r6, [sp, #340]	; 0x154
 8012e64:	f89d 515c 	ldrb.w	r5, [sp, #348]	; 0x15c
 8012e68:	f8ad 202b 	strh.w	r2, [sp, #43]	; 0x2b
 8012e6c:	f89d 2150 	ldrb.w	r2, [sp, #336]	; 0x150
 8012e70:	f88d 0028 	strb.w	r0, [sp, #40]	; 0x28
 8012e74:	ac0a      	add	r4, sp, #40	; 0x28
 8012e76:	f106 0308 	add.w	r3, r6, #8
 8012e7a:	f04f 0900 	mov.w	r9, #0
 8012e7e:	f8ad 1029 	strh.w	r1, [sp, #41]	; 0x29
 8012e82:	f88d 202e 	strb.w	r2, [sp, #46]	; 0x2e
 8012e86:	9956      	ldr	r1, [sp, #344]	; 0x158
 8012e88:	f88d c02d 	strb.w	ip, [sp, #45]	; 0x2d
 8012e8c:	4632      	mov	r2, r6
 8012e8e:	a80c      	add	r0, sp, #48	; 0x30
 8012e90:	eb04 0b03 	add.w	fp, r4, r3
 8012e94:	9301      	str	r3, [sp, #4]
 8012e96:	f88d 602f 	strb.w	r6, [sp, #47]	; 0x2f
 8012e9a:	f105 0709 	add.w	r7, r5, #9
 8012e9e:	f88d 900f 	strb.w	r9, [sp, #15]
 8012ea2:	f000 fa96 	bl	80133d2 <Osal_MemCpy>
 8012ea6:	9b01      	ldr	r3, [sp, #4]
 8012ea8:	9958      	ldr	r1, [sp, #352]	; 0x160
 8012eaa:	54e5      	strb	r5, [r4, r3]
 8012eac:	4437      	add	r7, r6
 8012eae:	462a      	mov	r2, r5
 8012eb0:	f10b 0001 	add.w	r0, fp, #1
 8012eb4:	f000 fa8d 	bl	80133d2 <Osal_MemCpy>
 8012eb8:	eb04 0a07 	add.w	sl, r4, r7
 8012ebc:	f8bd 3164 	ldrh.w	r3, [sp, #356]	; 0x164
 8012ec0:	53e3      	strh	r3, [r4, r7]
 8012ec2:	f8bd 3168 	ldrh.w	r3, [sp, #360]	; 0x168
 8012ec6:	f8aa 3002 	strh.w	r3, [sl, #2]
 8012eca:	2218      	movs	r2, #24
 8012ecc:	4649      	mov	r1, r9
 8012ece:	3609      	adds	r6, #9
 8012ed0:	a804      	add	r0, sp, #16
 8012ed2:	f000 fa80 	bl	80133d6 <Osal_MemSet>
 8012ed6:	4435      	add	r5, r6
 8012ed8:	4b0a      	ldr	r3, [pc, #40]	; (8012f04 <aci_gap_set_discoverable+0xac>)
 8012eda:	9304      	str	r3, [sp, #16]
 8012edc:	f10d 080f 	add.w	r8, sp, #15
 8012ee0:	2301      	movs	r3, #1
 8012ee2:	3504      	adds	r5, #4
 8012ee4:	4649      	mov	r1, r9
 8012ee6:	a804      	add	r0, sp, #16
 8012ee8:	e9cd 5807 	strd	r5, r8, [sp, #28]
 8012eec:	9406      	str	r4, [sp, #24]
 8012eee:	9309      	str	r3, [sp, #36]	; 0x24
 8012ef0:	f000 fb40 	bl	8013574 <hci_send_req>
 8012ef4:	4548      	cmp	r0, r9
 8012ef6:	bfac      	ite	ge
 8012ef8:	f898 0000 	ldrbge.w	r0, [r8]
 8012efc:	20ff      	movlt	r0, #255	; 0xff
 8012efe:	b04b      	add	sp, #300	; 0x12c
 8012f00:	e8bd 8ff0 	ldmia.w	sp!, {r4, r5, r6, r7, r8, r9, sl, fp, pc}
 8012f04:	0083003f 	.word	0x0083003f

08012f08 <aci_gap_set_io_capability>:
 8012f08:	b570      	push	{r4, r5, r6, lr}
 8012f0a:	b0c8      	sub	sp, #288	; 0x120
 8012f0c:	2500      	movs	r5, #0
 8012f0e:	f88d 0020 	strb.w	r0, [sp, #32]
 8012f12:	2218      	movs	r2, #24
 8012f14:	4629      	mov	r1, r5
 8012f16:	a802      	add	r0, sp, #8
 8012f18:	f88d 5007 	strb.w	r5, [sp, #7]
 8012f1c:	f000 fa5b 	bl	80133d6 <Osal_MemSet>
 8012f20:	4b09      	ldr	r3, [pc, #36]	; (8012f48 <aci_gap_set_io_capability+0x40>)
 8012f22:	9302      	str	r3, [sp, #8]
 8012f24:	f10d 0407 	add.w	r4, sp, #7
 8012f28:	2301      	movs	r3, #1
 8012f2a:	ae08      	add	r6, sp, #32
 8012f2c:	4629      	mov	r1, r5
 8012f2e:	a802      	add	r0, sp, #8
 8012f30:	e9cd 3405 	strd	r3, r4, [sp, #20]
 8012f34:	9604      	str	r6, [sp, #16]
 8012f36:	9307      	str	r3, [sp, #28]
 8012f38:	f000 fb1c 	bl	8013574 <hci_send_req>
 8012f3c:	42a8      	cmp	r0, r5
 8012f3e:	bfac      	ite	ge
 8012f40:	7820      	ldrbge	r0, [r4, #0]
 8012f42:	20ff      	movlt	r0, #255	; 0xff
 8012f44:	b048      	add	sp, #288	; 0x120
 8012f46:	bd70      	pop	{r4, r5, r6, pc}
 8012f48:	0085003f 	.word	0x0085003f

08012f4c <aci_gap_set_authentication_requirement>:
 8012f4c:	b570      	push	{r4, r5, r6, lr}
 8012f4e:	b0c8      	sub	sp, #288	; 0x120
 8012f50:	2600      	movs	r6, #0
 8012f52:	f88d 3023 	strb.w	r3, [sp, #35]	; 0x23
 8012f56:	f89d 3130 	ldrb.w	r3, [sp, #304]	; 0x130
 8012f5a:	f88d 3024 	strb.w	r3, [sp, #36]	; 0x24
 8012f5e:	f89d 3134 	ldrb.w	r3, [sp, #308]	; 0x134
 8012f62:	f88d 3025 	strb.w	r3, [sp, #37]	; 0x25
 8012f66:	f89d 3138 	ldrb.w	r3, [sp, #312]	; 0x138
 8012f6a:	f88d 3026 	strb.w	r3, [sp, #38]	; 0x26
 8012f6e:	9b4f      	ldr	r3, [sp, #316]	; 0x13c
 8012f70:	f88d 0020 	strb.w	r0, [sp, #32]
 8012f74:	f88d 1021 	strb.w	r1, [sp, #33]	; 0x21
 8012f78:	f88d 2022 	strb.w	r2, [sp, #34]	; 0x22
 8012f7c:	f8cd 3027 	str.w	r3, [sp, #39]	; 0x27
 8012f80:	2218      	movs	r2, #24
 8012f82:	f89d 3140 	ldrb.w	r3, [sp, #320]	; 0x140
 8012f86:	f88d 302b 	strb.w	r3, [sp, #43]	; 0x2b
 8012f8a:	4631      	mov	r1, r6
 8012f8c:	a802      	add	r0, sp, #8
 8012f8e:	f88d 6007 	strb.w	r6, [sp, #7]
 8012f92:	f000 fa20 	bl	80133d6 <Osal_MemSet>
 8012f96:	4b0a      	ldr	r3, [pc, #40]	; (8012fc0 <aci_gap_set_authentication_requirement+0x74>)
 8012f98:	9302      	str	r3, [sp, #8]
 8012f9a:	f10d 0507 	add.w	r5, sp, #7
 8012f9e:	230c      	movs	r3, #12
 8012fa0:	e9cd 3505 	strd	r3, r5, [sp, #20]
 8012fa4:	ac08      	add	r4, sp, #32
 8012fa6:	2301      	movs	r3, #1
 8012fa8:	4631      	mov	r1, r6
 8012faa:	a802      	add	r0, sp, #8
 8012fac:	9404      	str	r4, [sp, #16]
 8012fae:	9307      	str	r3, [sp, #28]
 8012fb0:	f000 fae0 	bl	8013574 <hci_send_req>
 8012fb4:	42b0      	cmp	r0, r6
 8012fb6:	bfac      	ite	ge
 8012fb8:	7828      	ldrbge	r0, [r5, #0]
 8012fba:	20ff      	movlt	r0, #255	; 0xff
 8012fbc:	b048      	add	sp, #288	; 0x120
 8012fbe:	bd70      	pop	{r4, r5, r6, pc}
 8012fc0:	0086003f 	.word	0x0086003f

08012fc4 <aci_gap_init>:
 8012fc4:	e92d 41f0 	stmdb	sp!, {r4, r5, r6, r7, r8, lr}
 8012fc8:	b0c8      	sub	sp, #288	; 0x120
 8012fca:	4680      	mov	r8, r0
 8012fcc:	460f      	mov	r7, r1
 8012fce:	4616      	mov	r6, r2
 8012fd0:	2100      	movs	r1, #0
 8012fd2:	2207      	movs	r2, #7
 8012fd4:	4668      	mov	r0, sp
 8012fd6:	461d      	mov	r5, r3
 8012fd8:	f000 f9fd 	bl	80133d6 <Osal_MemSet>
 8012fdc:	2218      	movs	r2, #24
 8012fde:	2100      	movs	r1, #0
 8012fe0:	a802      	add	r0, sp, #8
 8012fe2:	f88d 8020 	strb.w	r8, [sp, #32]
 8012fe6:	f88d 7021 	strb.w	r7, [sp, #33]	; 0x21
 8012fea:	f88d 6022 	strb.w	r6, [sp, #34]	; 0x22
 8012fee:	f000 f9f2 	bl	80133d6 <Osal_MemSet>
 8012ff2:	4b14      	ldr	r3, [pc, #80]	; (8013044 <aci_gap_init+0x80>)
 8012ff4:	9302      	str	r3, [sp, #8]
 8012ff6:	2303      	movs	r3, #3
 8012ff8:	9305      	str	r3, [sp, #20]
 8012ffa:	ac08      	add	r4, sp, #32
 8012ffc:	2307      	movs	r3, #7
 8012ffe:	2100      	movs	r1, #0
 8013000:	a802      	add	r0, sp, #8
 8013002:	9404      	str	r4, [sp, #16]
 8013004:	f8cd d018 	str.w	sp, [sp, #24]
 8013008:	9307      	str	r3, [sp, #28]
 801300a:	f000 fab3 	bl	8013574 <hci_send_req>
 801300e:	2800      	cmp	r0, #0
 8013010:	db16      	blt.n	8013040 <aci_gap_init+0x7c>
 8013012:	f89d 0000 	ldrb.w	r0, [sp]
 8013016:	b980      	cbnz	r0, 801303a <aci_gap_init+0x76>
 8013018:	9b00      	ldr	r3, [sp, #0]
 801301a:	f89d 2004 	ldrb.w	r2, [sp, #4]
 801301e:	f3c3 230f 	ubfx	r3, r3, #8, #16
 8013022:	802b      	strh	r3, [r5, #0]
 8013024:	f89d 3003 	ldrb.w	r3, [sp, #3]
 8013028:	ea43 2302 	orr.w	r3, r3, r2, lsl #8
 801302c:	9a4e      	ldr	r2, [sp, #312]	; 0x138
 801302e:	8013      	strh	r3, [r2, #0]
 8013030:	9b01      	ldr	r3, [sp, #4]
 8013032:	9a4f      	ldr	r2, [sp, #316]	; 0x13c
 8013034:	f3c3 230f 	ubfx	r3, r3, #8, #16
 8013038:	8013      	strh	r3, [r2, #0]
 801303a:	b048      	add	sp, #288	; 0x120
 801303c:	e8bd 81f0 	ldmia.w	sp!, {r4, r5, r6, r7, r8, pc}
 8013040:	20ff      	movs	r0, #255	; 0xff
 8013042:	e7fa      	b.n	801303a <aci_gap_init+0x76>
 8013044:	008a003f 	.word	0x008a003f

08013048 <aci_gap_update_adv_data>:
 8013048:	b5f0      	push	{r4, r5, r6, r7, lr}
 801304a:	b0c9      	sub	sp, #292	; 0x124
 801304c:	2600      	movs	r6, #0
 801304e:	f88d 0020 	strb.w	r0, [sp, #32]
 8013052:	4602      	mov	r2, r0
 8013054:	4604      	mov	r4, r0
 8013056:	f10d 0021 	add.w	r0, sp, #33	; 0x21
 801305a:	f88d 6007 	strb.w	r6, [sp, #7]
 801305e:	f000 f9b8 	bl	80133d2 <Osal_MemCpy>
 8013062:	2218      	movs	r2, #24
 8013064:	4631      	mov	r1, r6
 8013066:	a802      	add	r0, sp, #8
 8013068:	f000 f9b5 	bl	80133d6 <Osal_MemSet>
 801306c:	4b0a      	ldr	r3, [pc, #40]	; (8013098 <aci_gap_update_adv_data+0x50>)
 801306e:	9302      	str	r3, [sp, #8]
 8013070:	f10d 0507 	add.w	r5, sp, #7
 8013074:	2301      	movs	r3, #1
 8013076:	af08      	add	r7, sp, #32
 8013078:	3401      	adds	r4, #1
 801307a:	4631      	mov	r1, r6
 801307c:	a802      	add	r0, sp, #8
 801307e:	e9cd 4505 	strd	r4, r5, [sp, #20]
 8013082:	9704      	str	r7, [sp, #16]
 8013084:	9307      	str	r3, [sp, #28]
 8013086:	f000 fa75 	bl	8013574 <hci_send_req>
 801308a:	42b0      	cmp	r0, r6
 801308c:	bfac      	ite	ge
 801308e:	7828      	ldrbge	r0, [r5, #0]
 8013090:	20ff      	movlt	r0, #255	; 0xff
 8013092:	b049      	add	sp, #292	; 0x124
 8013094:	bdf0      	pop	{r4, r5, r6, r7, pc}
 8013096:	bf00      	nop
 8013098:	008e003f 	.word	0x008e003f

0801309c <aci_gatt_init>:
 801309c:	b510      	push	{r4, lr}
 801309e:	2400      	movs	r4, #0
 80130a0:	b088      	sub	sp, #32
 80130a2:	2218      	movs	r2, #24
 80130a4:	4621      	mov	r1, r4
 80130a6:	a802      	add	r0, sp, #8
 80130a8:	f88d 4007 	strb.w	r4, [sp, #7]
 80130ac:	f000 f993 	bl	80133d6 <Osal_MemSet>
 80130b0:	4b08      	ldr	r3, [pc, #32]	; (80130d4 <aci_gatt_init+0x38>)
 80130b2:	9302      	str	r3, [sp, #8]
 80130b4:	f10d 0307 	add.w	r3, sp, #7
 80130b8:	9306      	str	r3, [sp, #24]
 80130ba:	4621      	mov	r1, r4
 80130bc:	2301      	movs	r3, #1
 80130be:	a802      	add	r0, sp, #8
 80130c0:	9307      	str	r3, [sp, #28]
 80130c2:	f000 fa57 	bl	8013574 <hci_send_req>
 80130c6:	42a0      	cmp	r0, r4
 80130c8:	bfac      	ite	ge
 80130ca:	f89d 0007 	ldrbge.w	r0, [sp, #7]
 80130ce:	20ff      	movlt	r0, #255	; 0xff
 80130d0:	b008      	add	sp, #32
 80130d2:	bd10      	pop	{r4, pc}
 80130d4:	0101003f 	.word	0x0101003f

080130d8 <aci_gatt_add_service>:
 80130d8:	e92d 4ff0 	stmdb	sp!, {r4, r5, r6, r7, r8, r9, sl, fp, lr}
 80130dc:	2801      	cmp	r0, #1
 80130de:	b0c9      	sub	sp, #292	; 0x124
 80130e0:	4604      	mov	r4, r0
 80130e2:	468a      	mov	sl, r1
 80130e4:	4691      	mov	r9, r2
 80130e6:	461f      	mov	r7, r3
 80130e8:	d03b      	beq.n	8013162 <aci_gatt_add_service+0x8a>
 80130ea:	2802      	cmp	r0, #2
 80130ec:	bf0c      	ite	eq
 80130ee:	f04f 0811 	moveq.w	r8, #17
 80130f2:	f04f 0801 	movne.w	r8, #1
 80130f6:	ad01      	add	r5, sp, #4
 80130f8:	2203      	movs	r2, #3
 80130fa:	2100      	movs	r1, #0
 80130fc:	4628      	mov	r0, r5
 80130fe:	ae08      	add	r6, sp, #32
 8013100:	f000 f969 	bl	80133d6 <Osal_MemSet>
 8013104:	2c01      	cmp	r4, #1
 8013106:	7034      	strb	r4, [r6, #0]
 8013108:	d02e      	beq.n	8013168 <aci_gatt_add_service+0x90>
 801310a:	2c02      	cmp	r4, #2
 801310c:	d12e      	bne.n	801316c <aci_gatt_add_service+0x94>
 801310e:	2410      	movs	r4, #16
 8013110:	eb06 0b08 	add.w	fp, r6, r8
 8013114:	4622      	mov	r2, r4
 8013116:	4651      	mov	r1, sl
 8013118:	f10d 0021 	add.w	r0, sp, #33	; 0x21
 801311c:	f000 f959 	bl	80133d2 <Osal_MemCpy>
 8013120:	f806 9008 	strb.w	r9, [r6, r8]
 8013124:	2218      	movs	r2, #24
 8013126:	2100      	movs	r1, #0
 8013128:	f88b 7001 	strb.w	r7, [fp, #1]
 801312c:	a802      	add	r0, sp, #8
 801312e:	f000 f952 	bl	80133d6 <Osal_MemSet>
 8013132:	4b10      	ldr	r3, [pc, #64]	; (8013174 <aci_gatt_add_service+0x9c>)
 8013134:	9302      	str	r3, [sp, #8]
 8013136:	3403      	adds	r4, #3
 8013138:	2303      	movs	r3, #3
 801313a:	2100      	movs	r1, #0
 801313c:	a802      	add	r0, sp, #8
 801313e:	e9cd 4505 	strd	r4, r5, [sp, #20]
 8013142:	9604      	str	r6, [sp, #16]
 8013144:	9307      	str	r3, [sp, #28]
 8013146:	f000 fa15 	bl	8013574 <hci_send_req>
 801314a:	2800      	cmp	r0, #0
 801314c:	db10      	blt.n	8013170 <aci_gatt_add_service+0x98>
 801314e:	7828      	ldrb	r0, [r5, #0]
 8013150:	b920      	cbnz	r0, 801315c <aci_gatt_add_service+0x84>
 8013152:	682b      	ldr	r3, [r5, #0]
 8013154:	9a52      	ldr	r2, [sp, #328]	; 0x148
 8013156:	f3c3 230f 	ubfx	r3, r3, #8, #16
 801315a:	8013      	strh	r3, [r2, #0]
 801315c:	b049      	add	sp, #292	; 0x124
 801315e:	e8bd 8ff0 	ldmia.w	sp!, {r4, r5, r6, r7, r8, r9, sl, fp, pc}
 8013162:	f04f 0803 	mov.w	r8, #3
 8013166:	e7c6      	b.n	80130f6 <aci_gatt_add_service+0x1e>
 8013168:	2402      	movs	r4, #2
 801316a:	e7d1      	b.n	8013110 <aci_gatt_add_service+0x38>
 801316c:	2047      	movs	r0, #71	; 0x47
 801316e:	e7f5      	b.n	801315c <aci_gatt_add_service+0x84>
 8013170:	20ff      	movs	r0, #255	; 0xff
 8013172:	e7f3      	b.n	801315c <aci_gatt_add_service+0x84>
 8013174:	0102003f 	.word	0x0102003f

08013178 <aci_gatt_add_char>:
 8013178:	e92d 43f0 	stmdb	sp!, {r4, r5, r6, r7, r8, r9, lr}
 801317c:	2901      	cmp	r1, #1
 801317e:	b0c9      	sub	sp, #292	; 0x124
 8013180:	4606      	mov	r6, r0
 8013182:	460c      	mov	r4, r1
 8013184:	4691      	mov	r9, r2
 8013186:	4698      	mov	r8, r3
 8013188:	d046      	beq.n	8013218 <aci_gatt_add_char+0xa0>
 801318a:	2902      	cmp	r1, #2
 801318c:	bf0c      	ite	eq
 801318e:	2713      	moveq	r7, #19
 8013190:	2703      	movne	r7, #3
 8013192:	ad08      	add	r5, sp, #32
 8013194:	2203      	movs	r2, #3
 8013196:	2100      	movs	r1, #0
 8013198:	a801      	add	r0, sp, #4
 801319a:	f000 f91c 	bl	80133d6 <Osal_MemSet>
 801319e:	2c01      	cmp	r4, #1
 80131a0:	802e      	strh	r6, [r5, #0]
 80131a2:	70ac      	strb	r4, [r5, #2]
 80131a4:	d03a      	beq.n	801321c <aci_gatt_add_char+0xa4>
 80131a6:	2c02      	cmp	r4, #2
 80131a8:	d13a      	bne.n	8013220 <aci_gatt_add_char+0xa8>
 80131aa:	2410      	movs	r4, #16
 80131ac:	19ee      	adds	r6, r5, r7
 80131ae:	4622      	mov	r2, r4
 80131b0:	4649      	mov	r1, r9
 80131b2:	f10d 0023 	add.w	r0, sp, #35	; 0x23
 80131b6:	f000 f90c 	bl	80133d2 <Osal_MemCpy>
 80131ba:	f89d 3140 	ldrb.w	r3, [sp, #320]	; 0x140
 80131be:	f825 8007 	strh.w	r8, [r5, r7]
 80131c2:	70b3      	strb	r3, [r6, #2]
 80131c4:	f89d 3144 	ldrb.w	r3, [sp, #324]	; 0x144
 80131c8:	70f3      	strb	r3, [r6, #3]
 80131ca:	f89d 3148 	ldrb.w	r3, [sp, #328]	; 0x148
 80131ce:	7133      	strb	r3, [r6, #4]
 80131d0:	f89d 314c 	ldrb.w	r3, [sp, #332]	; 0x14c
 80131d4:	7173      	strb	r3, [r6, #5]
 80131d6:	f89d 3150 	ldrb.w	r3, [sp, #336]	; 0x150
 80131da:	71b3      	strb	r3, [r6, #6]
 80131dc:	2218      	movs	r2, #24
 80131de:	2100      	movs	r1, #0
 80131e0:	a802      	add	r0, sp, #8
 80131e2:	f000 f8f8 	bl	80133d6 <Osal_MemSet>
 80131e6:	340a      	adds	r4, #10
 80131e8:	4b0f      	ldr	r3, [pc, #60]	; (8013228 <aci_gatt_add_char+0xb0>)
 80131ea:	9302      	str	r3, [sp, #8]
 80131ec:	9405      	str	r4, [sp, #20]
 80131ee:	2303      	movs	r3, #3
 80131f0:	ac01      	add	r4, sp, #4
 80131f2:	2100      	movs	r1, #0
 80131f4:	a802      	add	r0, sp, #8
 80131f6:	9504      	str	r5, [sp, #16]
 80131f8:	9406      	str	r4, [sp, #24]
 80131fa:	9307      	str	r3, [sp, #28]
 80131fc:	f000 f9ba 	bl	8013574 <hci_send_req>
 8013200:	2800      	cmp	r0, #0
 8013202:	db0f      	blt.n	8013224 <aci_gatt_add_char+0xac>
 8013204:	7820      	ldrb	r0, [r4, #0]
 8013206:	b920      	cbnz	r0, 8013212 <aci_gatt_add_char+0x9a>
 8013208:	6823      	ldr	r3, [r4, #0]
 801320a:	9a55      	ldr	r2, [sp, #340]	; 0x154
 801320c:	f3c3 230f 	ubfx	r3, r3, #8, #16
 8013210:	8013      	strh	r3, [r2, #0]
 8013212:	b049      	add	sp, #292	; 0x124
 8013214:	e8bd 83f0 	ldmia.w	sp!, {r4, r5, r6, r7, r8, r9, pc}
 8013218:	2705      	movs	r7, #5
 801321a:	e7ba      	b.n	8013192 <aci_gatt_add_char+0x1a>
 801321c:	2402      	movs	r4, #2
 801321e:	e7c5      	b.n	80131ac <aci_gatt_add_char+0x34>
 8013220:	2047      	movs	r0, #71	; 0x47
 8013222:	e7f6      	b.n	8013212 <aci_gatt_add_char+0x9a>
 8013224:	20ff      	movs	r0, #255	; 0xff
 8013226:	e7f4      	b.n	8013212 <aci_gatt_add_char+0x9a>
 8013228:	0104003f 	.word	0x0104003f

0801322c <aci_gatt_update_char_value>:
 801322c:	b5f0      	push	{r4, r5, r6, r7, lr}
 801322e:	b0c9      	sub	sp, #292	; 0x124
 8013230:	2700      	movs	r7, #0
 8013232:	f8ad 0020 	strh.w	r0, [sp, #32]
 8013236:	f8ad 1022 	strh.w	r1, [sp, #34]	; 0x22
 801323a:	f88d 2024 	strb.w	r2, [sp, #36]	; 0x24
 801323e:	994e      	ldr	r1, [sp, #312]	; 0x138
 8013240:	f88d 3025 	strb.w	r3, [sp, #37]	; 0x25
 8013244:	461a      	mov	r2, r3
 8013246:	f10d 0026 	add.w	r0, sp, #38	; 0x26
 801324a:	461c      	mov	r4, r3
 801324c:	f88d 7007 	strb.w	r7, [sp, #7]
 8013250:	f000 f8bf 	bl	80133d2 <Osal_MemCpy>
 8013254:	2218      	movs	r2, #24
 8013256:	4639      	mov	r1, r7
 8013258:	a802      	add	r0, sp, #8
 801325a:	f000 f8bc 	bl	80133d6 <Osal_MemSet>
 801325e:	4b0a      	ldr	r3, [pc, #40]	; (8013288 <aci_gatt_update_char_value+0x5c>)
 8013260:	9302      	str	r3, [sp, #8]
 8013262:	f10d 0607 	add.w	r6, sp, #7
 8013266:	2301      	movs	r3, #1
 8013268:	ad08      	add	r5, sp, #32
 801326a:	3406      	adds	r4, #6
 801326c:	4639      	mov	r1, r7
 801326e:	a802      	add	r0, sp, #8
 8013270:	e9cd 4605 	strd	r4, r6, [sp, #20]
 8013274:	9504      	str	r5, [sp, #16]
 8013276:	9307      	str	r3, [sp, #28]
 8013278:	f000 f97c 	bl	8013574 <hci_send_req>
 801327c:	42b8      	cmp	r0, r7
 801327e:	bfac      	ite	ge
 8013280:	7830      	ldrbge	r0, [r6, #0]
 8013282:	20ff      	movlt	r0, #255	; 0xff
 8013284:	b049      	add	sp, #292	; 0x124
 8013286:	bdf0      	pop	{r4, r5, r6, r7, pc}
 8013288:	0106003f 	.word	0x0106003f

0801328c <aci_gatt_write_resp>:
 801328c:	b5f0      	push	{r4, r5, r6, r7, lr}
 801328e:	b0c9      	sub	sp, #292	; 0x124
 8013290:	2700      	movs	r7, #0
 8013292:	f89d 5138 	ldrb.w	r5, [sp, #312]	; 0x138
 8013296:	f8ad 0020 	strh.w	r0, [sp, #32]
 801329a:	f8ad 1022 	strh.w	r1, [sp, #34]	; 0x22
 801329e:	f88d 2024 	strb.w	r2, [sp, #36]	; 0x24
 80132a2:	994f      	ldr	r1, [sp, #316]	; 0x13c
 80132a4:	f88d 3025 	strb.w	r3, [sp, #37]	; 0x25
 80132a8:	462a      	mov	r2, r5
 80132aa:	f10d 0027 	add.w	r0, sp, #39	; 0x27
 80132ae:	f88d 5026 	strb.w	r5, [sp, #38]	; 0x26
 80132b2:	f88d 7007 	strb.w	r7, [sp, #7]
 80132b6:	f000 f88c 	bl	80133d2 <Osal_MemCpy>
 80132ba:	2218      	movs	r2, #24
 80132bc:	4639      	mov	r1, r7
 80132be:	a802      	add	r0, sp, #8
 80132c0:	f000 f889 	bl	80133d6 <Osal_MemSet>
 80132c4:	4b0a      	ldr	r3, [pc, #40]	; (80132f0 <aci_gatt_write_resp+0x64>)
 80132c6:	9302      	str	r3, [sp, #8]
 80132c8:	f10d 0607 	add.w	r6, sp, #7
 80132cc:	2301      	movs	r3, #1
 80132ce:	ac08      	add	r4, sp, #32
 80132d0:	3507      	adds	r5, #7
 80132d2:	4639      	mov	r1, r7
 80132d4:	a802      	add	r0, sp, #8
 80132d6:	e9cd 5605 	strd	r5, r6, [sp, #20]
 80132da:	9404      	str	r4, [sp, #16]
 80132dc:	9307      	str	r3, [sp, #28]
 80132de:	f000 f949 	bl	8013574 <hci_send_req>
 80132e2:	42b8      	cmp	r0, r7
 80132e4:	bfac      	ite	ge
 80132e6:	7830      	ldrbge	r0, [r6, #0]
 80132e8:	20ff      	movlt	r0, #255	; 0xff
 80132ea:	b049      	add	sp, #292	; 0x124
 80132ec:	bdf0      	pop	{r4, r5, r6, r7, pc}
 80132ee:	bf00      	nop
 80132f0:	0126003f 	.word	0x0126003f

080132f4 <aci_hal_write_config_data>:
 80132f4:	b5f0      	push	{r4, r5, r6, r7, lr}
 80132f6:	b0c9      	sub	sp, #292	; 0x124
 80132f8:	460c      	mov	r4, r1
 80132fa:	2600      	movs	r6, #0
 80132fc:	4611      	mov	r1, r2
 80132fe:	f88d 0020 	strb.w	r0, [sp, #32]
 8013302:	4622      	mov	r2, r4
 8013304:	f10d 0022 	add.w	r0, sp, #34	; 0x22
 8013308:	f88d 4021 	strb.w	r4, [sp, #33]	; 0x21
 801330c:	f88d 6007 	strb.w	r6, [sp, #7]
 8013310:	f000 f85f 	bl	80133d2 <Osal_MemCpy>
 8013314:	2218      	movs	r2, #24
 8013316:	4631      	mov	r1, r6
 8013318:	a802      	add	r0, sp, #8
 801331a:	f000 f85c 	bl	80133d6 <Osal_MemSet>
 801331e:	4b0a      	ldr	r3, [pc, #40]	; (8013348 <aci_hal_write_config_data+0x54>)
 8013320:	9302      	str	r3, [sp, #8]
 8013322:	f10d 0507 	add.w	r5, sp, #7
 8013326:	2301      	movs	r3, #1
 8013328:	af08      	add	r7, sp, #32
 801332a:	3402      	adds	r4, #2
 801332c:	4631      	mov	r1, r6
 801332e:	a802      	add	r0, sp, #8
 8013330:	e9cd 4505 	strd	r4, r5, [sp, #20]
 8013334:	9704      	str	r7, [sp, #16]
 8013336:	9307      	str	r3, [sp, #28]
 8013338:	f000 f91c 	bl	8013574 <hci_send_req>
 801333c:	42b0      	cmp	r0, r6
 801333e:	bfac      	ite	ge
 8013340:	7828      	ldrbge	r0, [r5, #0]
 8013342:	20ff      	movlt	r0, #255	; 0xff
 8013344:	b049      	add	sp, #292	; 0x124
 8013346:	bdf0      	pop	{r4, r5, r6, r7, pc}
 8013348:	000c003f 	.word	0x000c003f

0801334c <aci_hal_set_tx_power_level>:
 801334c:	b570      	push	{r4, r5, r6, lr}
 801334e:	b0c8      	sub	sp, #288	; 0x120
 8013350:	2500      	movs	r5, #0
 8013352:	f88d 0020 	strb.w	r0, [sp, #32]
 8013356:	f88d 1021 	strb.w	r1, [sp, #33]	; 0x21
 801335a:	2218      	movs	r2, #24
 801335c:	4629      	mov	r1, r5
 801335e:	a802      	add	r0, sp, #8
 8013360:	f88d 5007 	strb.w	r5, [sp, #7]
 8013364:	f000 f837 	bl	80133d6 <Osal_MemSet>
 8013368:	4b0a      	ldr	r3, [pc, #40]	; (8013394 <aci_hal_set_tx_power_level+0x48>)
 801336a:	9302      	str	r3, [sp, #8]
 801336c:	f10d 0407 	add.w	r4, sp, #7
 8013370:	2302      	movs	r3, #2
 8013372:	e9cd 3405 	strd	r3, r4, [sp, #20]
 8013376:	ae08      	add	r6, sp, #32
 8013378:	2301      	movs	r3, #1
 801337a:	4629      	mov	r1, r5
 801337c:	a802      	add	r0, sp, #8
 801337e:	9604      	str	r6, [sp, #16]
 8013380:	9307      	str	r3, [sp, #28]
 8013382:	f000 f8f7 	bl	8013574 <hci_send_req>
 8013386:	42a8      	cmp	r0, r5
 8013388:	bfac      	ite	ge
 801338a:	7820      	ldrbge	r0, [r4, #0]
 801338c:	20ff      	movlt	r0, #255	; 0xff
 801338e:	b048      	add	sp, #288	; 0x120
 8013390:	bd70      	pop	{r4, r5, r6, pc}
 8013392:	bf00      	nop
 8013394:	000f003f 	.word	0x000f003f

08013398 <hci_reset>:
 8013398:	b510      	push	{r4, lr}
 801339a:	2400      	movs	r4, #0
 801339c:	b088      	sub	sp, #32
 801339e:	2218      	movs	r2, #24
 80133a0:	4621      	mov	r1, r4
 80133a2:	a802      	add	r0, sp, #8
 80133a4:	f88d 4007 	strb.w	r4, [sp, #7]
 80133a8:	f000 f815 	bl	80133d6 <Osal_MemSet>
 80133ac:	f04f 1303 	mov.w	r3, #196611	; 0x30003
 80133b0:	9302      	str	r3, [sp, #8]
 80133b2:	f10d 0307 	add.w	r3, sp, #7
 80133b6:	9306      	str	r3, [sp, #24]
 80133b8:	4621      	mov	r1, r4
 80133ba:	2301      	movs	r3, #1
 80133bc:	a802      	add	r0, sp, #8
 80133be:	9307      	str	r3, [sp, #28]
 80133c0:	f000 f8d8 	bl	8013574 <hci_send_req>
 80133c4:	42a0      	cmp	r0, r4
 80133c6:	bfac      	ite	ge
 80133c8:	f89d 0007 	ldrbge.w	r0, [sp, #7]
 80133cc:	20ff      	movlt	r0, #255	; 0xff
 80133ce:	b008      	add	sp, #32
 80133d0:	bd10      	pop	{r4, pc}

080133d2 <Osal_MemCpy>:
 80133d2:	f000 bd17 	b.w	8013e04 <memcpy>

080133d6 <Osal_MemSet>:
 80133d6:	f000 bd23 	b.w	8013e20 <memset>

080133da <SHCI_C2_FUS_GetState>:
 80133da:	b51f      	push	{r0, r1, r2, r3, r4, lr}
 80133dc:	2200      	movs	r2, #0
 80133de:	4604      	mov	r4, r0
 80133e0:	466b      	mov	r3, sp
 80133e2:	4611      	mov	r1, r2
 80133e4:	f64f 4052 	movw	r0, #64594	; 0xfc52
 80133e8:	f000 f9c2 	bl	8013770 <shci_send>
 80133ec:	b114      	cbz	r4, 80133f4 <SHCI_C2_FUS_GetState+0x1a>
 80133ee:	f89d 300f 	ldrb.w	r3, [sp, #15]
 80133f2:	7023      	strb	r3, [r4, #0]
 80133f4:	f89d 000e 	ldrb.w	r0, [sp, #14]
 80133f8:	b004      	add	sp, #16
 80133fa:	bd10      	pop	{r4, pc}

080133fc <SHCI_C2_FUS_FwUpgrade>:
 80133fc:	b51f      	push	{r0, r1, r2, r3, r4, lr}
 80133fe:	b108      	cbz	r0, 8013404 <SHCI_C2_FUS_FwUpgrade+0x8>
 8013400:	9000      	str	r0, [sp, #0]
 8013402:	2004      	movs	r0, #4
 8013404:	b111      	cbz	r1, 801340c <SHCI_C2_FUS_FwUpgrade+0x10>
 8013406:	3004      	adds	r0, #4
 8013408:	9101      	str	r1, [sp, #4]
 801340a:	b2c0      	uxtb	r0, r0
 801340c:	466b      	mov	r3, sp
 801340e:	4601      	mov	r1, r0
 8013410:	461a      	mov	r2, r3
 8013412:	f64f 4054 	movw	r0, #64596	; 0xfc54
 8013416:	f000 f9ab 	bl	8013770 <shci_send>
 801341a:	f89d 000e 	ldrb.w	r0, [sp, #14]
 801341e:	b005      	add	sp, #20
 8013420:	f85d fb04 	ldr.w	pc, [sp], #4

08013424 <SHCI_C2_FUS_StartWs>:
 8013424:	b51f      	push	{r0, r1, r2, r3, r4, lr}
 8013426:	2200      	movs	r2, #0
 8013428:	466b      	mov	r3, sp
 801342a:	4611      	mov	r1, r2
 801342c:	f64f 405a 	movw	r0, #64602	; 0xfc5a
 8013430:	f000 f99e 	bl	8013770 <shci_send>
 8013434:	f89d 000e 	ldrb.w	r0, [sp, #14]
 8013438:	b005      	add	sp, #20
 801343a:	f85d fb04 	ldr.w	pc, [sp], #4

0801343e <SHCI_C2_BLE_Init>:
 801343e:	b51f      	push	{r0, r1, r2, r3, r4, lr}
 8013440:	f100 020c 	add.w	r2, r0, #12
 8013444:	466b      	mov	r3, sp
 8013446:	2124      	movs	r1, #36	; 0x24
 8013448:	f64f 4066 	movw	r0, #64614	; 0xfc66
 801344c:	f000 f990 	bl	8013770 <shci_send>
 8013450:	f89d 000e 	ldrb.w	r0, [sp, #14]
 8013454:	b005      	add	sp, #20
 8013456:	f85d fb04 	ldr.w	pc, [sp], #4

0801345a <SHCI_C2_DEBUG_Init>:
 801345a:	b51f      	push	{r0, r1, r2, r3, r4, lr}
 801345c:	f100 020c 	add.w	r2, r0, #12
 8013460:	466b      	mov	r3, sp
 8013462:	210f      	movs	r1, #15
 8013464:	f64f 4068 	movw	r0, #64616	; 0xfc68
 8013468:	f000 f982 	bl	8013770 <shci_send>
 801346c:	f89d 000e 	ldrb.w	r0, [sp, #14]
 8013470:	b005      	add	sp, #20
 8013472:	f85d fb04 	ldr.w	pc, [sp], #4

08013476 <SHCI_C2_FLASH_EraseActivity>:
 8013476:	b51f      	push	{r0, r1, r2, r3, r4, lr}
 8013478:	466b      	mov	r3, sp
 801347a:	f88d 0000 	strb.w	r0, [sp]
 801347e:	461a      	mov	r2, r3
 8013480:	2101      	movs	r1, #1
 8013482:	f64f 4069 	movw	r0, #64617	; 0xfc69
 8013486:	f000 f973 	bl	8013770 <shci_send>
 801348a:	f89d 000e 	ldrb.w	r0, [sp, #14]
 801348e:	b005      	add	sp, #20
 8013490:	f85d fb04 	ldr.w	pc, [sp], #4

08013494 <SHCI_C2_SetFlashActivityControl>:
 8013494:	b51f      	push	{r0, r1, r2, r3, r4, lr}
 8013496:	466b      	mov	r3, sp
 8013498:	f88d 0000 	strb.w	r0, [sp]
 801349c:	461a      	mov	r2, r3
 801349e:	2101      	movs	r1, #1
 80134a0:	f64f 4073 	movw	r0, #64627	; 0xfc73
 80134a4:	f000 f964 	bl	8013770 <shci_send>
 80134a8:	f89d 000e 	ldrb.w	r0, [sp, #14]
 80134ac:	b005      	add	sp, #20
 80134ae:	f85d fb04 	ldr.w	pc, [sp], #4
	...

080134b4 <hci_init>:
 80134b4:	b57f      	push	{r0, r1, r2, r3, r4, r5, r6, lr}
 80134b6:	4d0f      	ldr	r5, [pc, #60]	; (80134f4 <hci_init+0x40>)
 80134b8:	4b0f      	ldr	r3, [pc, #60]	; (80134f8 <hci_init+0x44>)
 80134ba:	684a      	ldr	r2, [r1, #4]
 80134bc:	4e0f      	ldr	r6, [pc, #60]	; (80134fc <hci_init+0x48>)
 80134be:	61e8      	str	r0, [r5, #28]
 80134c0:	460c      	mov	r4, r1
 80134c2:	4628      	mov	r0, r5
 80134c4:	601a      	str	r2, [r3, #0]
 80134c6:	f000 f8d3 	bl	8013670 <hci_register_io_bus>
 80134ca:	480d      	ldr	r0, [pc, #52]	; (8013500 <hci_init+0x4c>)
 80134cc:	6824      	ldr	r4, [r4, #0]
 80134ce:	f000 fae5 	bl	8013a9c <LST_init_head>
 80134d2:	4630      	mov	r0, r6
 80134d4:	f840 4b04 	str.w	r4, [r0], #4
 80134d8:	f000 fae0 	bl	8013a9c <LST_init_head>
 80134dc:	2301      	movs	r3, #1
 80134de:	7333      	strb	r3, [r6, #12]
 80134e0:	682b      	ldr	r3, [r5, #0]
 80134e2:	b123      	cbz	r3, 80134ee <hci_init+0x3a>
 80134e4:	4a07      	ldr	r2, [pc, #28]	; (8013504 <hci_init+0x50>)
 80134e6:	9402      	str	r4, [sp, #8]
 80134e8:	9200      	str	r2, [sp, #0]
 80134ea:	4668      	mov	r0, sp
 80134ec:	4798      	blx	r3
 80134ee:	b004      	add	sp, #16
 80134f0:	bd70      	pop	{r4, r5, r6, pc}
 80134f2:	bf00      	nop
 80134f4:	200012ac 	.word	0x200012ac
 80134f8:	200012a8 	.word	0x200012a8
 80134fc:	20001118 	.word	0x20001118
 8013500:	200012a0 	.word	0x200012a0
 8013504:	0801363d 	.word	0x0801363d

08013508 <hci_user_evt_proc>:
 8013508:	b51f      	push	{r0, r1, r2, r3, r4, lr}
 801350a:	4c17      	ldr	r4, [pc, #92]	; (8013568 <hci_user_evt_proc+0x60>)
 801350c:	1d20      	adds	r0, r4, #4
 801350e:	f000 fac8 	bl	8013aa2 <LST_is_empty>
 8013512:	b9b0      	cbnz	r0, 8013542 <hci_user_evt_proc+0x3a>
 8013514:	7b23      	ldrb	r3, [r4, #12]
 8013516:	b1a3      	cbz	r3, 8013542 <hci_user_evt_proc+0x3a>
 8013518:	a901      	add	r1, sp, #4
 801351a:	1d20      	adds	r0, r4, #4
 801351c:	f000 faee 	bl	8013afc <LST_remove_head>
 8013520:	4b12      	ldr	r3, [pc, #72]	; (801356c <hci_user_evt_proc+0x64>)
 8013522:	69da      	ldr	r2, [r3, #28]
 8013524:	2301      	movs	r3, #1
 8013526:	b1ba      	cbz	r2, 8013558 <hci_user_evt_proc+0x50>
 8013528:	9901      	ldr	r1, [sp, #4]
 801352a:	f88d 3008 	strb.w	r3, [sp, #8]
 801352e:	9103      	str	r1, [sp, #12]
 8013530:	a802      	add	r0, sp, #8
 8013532:	4790      	blx	r2
 8013534:	f89d 3008 	ldrb.w	r3, [sp, #8]
 8013538:	7323      	strb	r3, [r4, #12]
 801353a:	b17b      	cbz	r3, 801355c <hci_user_evt_proc+0x54>
 801353c:	9801      	ldr	r0, [sp, #4]
 801353e:	f000 fa57 	bl	80139f0 <TL_MM_EvtDone>
 8013542:	480b      	ldr	r0, [pc, #44]	; (8013570 <hci_user_evt_proc+0x68>)
 8013544:	f000 faad 	bl	8013aa2 <LST_is_empty>
 8013548:	b920      	cbnz	r0, 8013554 <hci_user_evt_proc+0x4c>
 801354a:	7b23      	ldrb	r3, [r4, #12]
 801354c:	b113      	cbz	r3, 8013554 <hci_user_evt_proc+0x4c>
 801354e:	4808      	ldr	r0, [pc, #32]	; (8013570 <hci_user_evt_proc+0x68>)
 8013550:	f7fd ff9e 	bl	8011490 <hci_notify_asynch_evt>
 8013554:	b004      	add	sp, #16
 8013556:	bd10      	pop	{r4, pc}
 8013558:	7323      	strb	r3, [r4, #12]
 801355a:	e7ef      	b.n	801353c <hci_user_evt_proc+0x34>
 801355c:	9901      	ldr	r1, [sp, #4]
 801355e:	1d20      	adds	r0, r4, #4
 8013560:	f000 faa9 	bl	8013ab6 <LST_insert_head>
 8013564:	e7ed      	b.n	8013542 <hci_user_evt_proc+0x3a>
 8013566:	bf00      	nop
 8013568:	20001118 	.word	0x20001118
 801356c:	200012ac 	.word	0x200012ac
 8013570:	2000111c 	.word	0x2000111c

08013574 <hci_send_req>:
 8013574:	e92d 43f7 	stmdb	sp!, {r0, r1, r2, r4, r5, r6, r7, r8, r9, lr}
 8013578:	4e2c      	ldr	r6, [pc, #176]	; (801362c <hci_send_req+0xb8>)
 801357a:	6833      	ldr	r3, [r6, #0]
 801357c:	4604      	mov	r4, r0
 801357e:	b10b      	cbz	r3, 8013584 <hci_send_req+0x10>
 8013580:	2000      	movs	r0, #0
 8013582:	4798      	blx	r3
 8013584:	8863      	ldrh	r3, [r4, #2]
 8013586:	8822      	ldrh	r2, [r4, #0]
 8013588:	4829      	ldr	r0, [pc, #164]	; (8013630 <hci_send_req+0xbc>)
 801358a:	f8df 90ac 	ldr.w	r9, [pc, #172]	; 8013638 <hci_send_req+0xc4>
 801358e:	6800      	ldr	r0, [r0, #0]
 8013590:	f3c3 0309 	ubfx	r3, r3, #0, #10
 8013594:	ea43 2382 	orr.w	r3, r3, r2, lsl #10
 8013598:	e9d4 1202 	ldrd	r1, r2, [r4, #8]
 801359c:	300c      	adds	r0, #12
 801359e:	f820 3c03 	strh.w	r3, [r0, #-3]
 80135a2:	f800 2c01 	strb.w	r2, [r0, #-1]
 80135a6:	b2d2      	uxtb	r2, r2
 80135a8:	fa1f f883 	uxth.w	r8, r3
 80135ac:	f000 fc2a 	bl	8013e04 <memcpy>
 80135b0:	4b20      	ldr	r3, [pc, #128]	; (8013634 <hci_send_req+0xc0>)
 80135b2:	2100      	movs	r1, #0
 80135b4:	691b      	ldr	r3, [r3, #16]
 80135b6:	4608      	mov	r0, r1
 80135b8:	4798      	blx	r3
 80135ba:	f248 00e8 	movw	r0, #33000	; 0x80e8
 80135be:	f7fd ff74 	bl	80114aa <hci_cmd_resp_wait>
 80135c2:	2700      	movs	r7, #0
 80135c4:	4648      	mov	r0, r9
 80135c6:	f000 fa6c 	bl	8013aa2 <LST_is_empty>
 80135ca:	b148      	cbz	r0, 80135e0 <hci_send_req+0x6c>
 80135cc:	2f00      	cmp	r7, #0
 80135ce:	d0f4      	beq.n	80135ba <hci_send_req+0x46>
 80135d0:	6833      	ldr	r3, [r6, #0]
 80135d2:	b10b      	cbz	r3, 80135d8 <hci_send_req+0x64>
 80135d4:	2001      	movs	r0, #1
 80135d6:	4798      	blx	r3
 80135d8:	2000      	movs	r0, #0
 80135da:	b003      	add	sp, #12
 80135dc:	e8bd 83f0 	ldmia.w	sp!, {r4, r5, r6, r7, r8, r9, pc}
 80135e0:	a901      	add	r1, sp, #4
 80135e2:	4648      	mov	r0, r9
 80135e4:	f000 fa8a 	bl	8013afc <LST_remove_head>
 80135e8:	9d01      	ldr	r5, [sp, #4]
 80135ea:	7a6b      	ldrb	r3, [r5, #9]
 80135ec:	2b0f      	cmp	r3, #15
 80135ee:	d10b      	bne.n	8013608 <hci_send_req+0x94>
 80135f0:	f8b5 300d 	ldrh.w	r3, [r5, #13]
 80135f4:	4543      	cmp	r3, r8
 80135f6:	bf02      	ittt	eq
 80135f8:	6923      	ldreq	r3, [r4, #16]
 80135fa:	7aea      	ldrbeq	r2, [r5, #11]
 80135fc:	701a      	strbeq	r2, [r3, #0]
 80135fe:	7b2b      	ldrb	r3, [r5, #12]
 8013600:	2b00      	cmp	r3, #0
 8013602:	d0df      	beq.n	80135c4 <hci_send_req+0x50>
 8013604:	2701      	movs	r7, #1
 8013606:	e7dd      	b.n	80135c4 <hci_send_req+0x50>
 8013608:	89ab      	ldrh	r3, [r5, #12]
 801360a:	4543      	cmp	r3, r8
 801360c:	d10c      	bne.n	8013628 <hci_send_req+0xb4>
 801360e:	7aaa      	ldrb	r2, [r5, #10]
 8013610:	6963      	ldr	r3, [r4, #20]
 8013612:	6920      	ldr	r0, [r4, #16]
 8013614:	3a03      	subs	r2, #3
 8013616:	b2d2      	uxtb	r2, r2
 8013618:	429a      	cmp	r2, r3
 801361a:	bfa8      	it	ge
 801361c:	461a      	movge	r2, r3
 801361e:	6162      	str	r2, [r4, #20]
 8013620:	f105 010e 	add.w	r1, r5, #14
 8013624:	f000 fbee 	bl	8013e04 <memcpy>
 8013628:	7aeb      	ldrb	r3, [r5, #11]
 801362a:	e7e9      	b.n	8013600 <hci_send_req+0x8c>
 801362c:	200012a8 	.word	0x200012a8
 8013630:	20001118 	.word	0x20001118
 8013634:	200012ac 	.word	0x200012ac
 8013638:	200012a0 	.word	0x200012a0

0801363c <TlEvtReceived>:
 801363c:	b508      	push	{r3, lr}
 801363e:	7a43      	ldrb	r3, [r0, #9]
 8013640:	3b0e      	subs	r3, #14
 8013642:	2b01      	cmp	r3, #1
 8013644:	4601      	mov	r1, r0
 8013646:	d806      	bhi.n	8013656 <TlEvtReceived+0x1a>
 8013648:	4807      	ldr	r0, [pc, #28]	; (8013668 <TlEvtReceived+0x2c>)
 801364a:	f000 fa40 	bl	8013ace <LST_insert_tail>
 801364e:	2000      	movs	r0, #0
 8013650:	f7fd ff28 	bl	80114a4 <hci_cmd_resp_release>
 8013654:	bd08      	pop	{r3, pc}
 8013656:	4805      	ldr	r0, [pc, #20]	; (801366c <TlEvtReceived+0x30>)
 8013658:	f000 fa39 	bl	8013ace <LST_insert_tail>
 801365c:	e8bd 4008 	ldmia.w	sp!, {r3, lr}
 8013660:	4802      	ldr	r0, [pc, #8]	; (801366c <TlEvtReceived+0x30>)
 8013662:	f7fd bf15 	b.w	8011490 <hci_notify_asynch_evt>
 8013666:	bf00      	nop
 8013668:	200012a0 	.word	0x200012a0
 801366c:	2000111c 	.word	0x2000111c

08013670 <hci_register_io_bus>:
 8013670:	4b02      	ldr	r3, [pc, #8]	; (801367c <hci_register_io_bus+0xc>)
 8013672:	6003      	str	r3, [r0, #0]
 8013674:	4b02      	ldr	r3, [pc, #8]	; (8013680 <hci_register_io_bus+0x10>)
 8013676:	6103      	str	r3, [r0, #16]
 8013678:	4770      	bx	lr
 801367a:	bf00      	nop
 801367c:	08013879 	.word	0x08013879
 8013680:	080138c1 	.word	0x080138c1

08013684 <TlUserEvtReceived>:
 8013684:	b508      	push	{r3, lr}
 8013686:	4601      	mov	r1, r0
 8013688:	4803      	ldr	r0, [pc, #12]	; (8013698 <TlUserEvtReceived+0x14>)
 801368a:	f000 fa20 	bl	8013ace <LST_insert_tail>
 801368e:	e8bd 4008 	ldmia.w	sp!, {r3, lr}
 8013692:	4801      	ldr	r0, [pc, #4]	; (8013698 <TlUserEvtReceived+0x14>)
 8013694:	f7fd b87c 	b.w	8010790 <shci_notify_asynch_evt>
 8013698:	20001128 	.word	0x20001128

0801369c <Cmd_SetStatus.constprop.0>:
 801369c:	4b03      	ldr	r3, [pc, #12]	; (80136ac <Cmd_SetStatus.constprop.0+0x10>)
 801369e:	2001      	movs	r0, #1
 80136a0:	7218      	strb	r0, [r3, #8]
 80136a2:	4b03      	ldr	r3, [pc, #12]	; (80136b0 <Cmd_SetStatus.constprop.0+0x14>)
 80136a4:	681b      	ldr	r3, [r3, #0]
 80136a6:	b103      	cbz	r3, 80136aa <Cmd_SetStatus.constprop.0+0xe>
 80136a8:	4718      	bx	r3
 80136aa:	4770      	bx	lr
 80136ac:	20001128 	.word	0x20001128
 80136b0:	200012cc 	.word	0x200012cc

080136b4 <shci_init>:
 80136b4:	b57f      	push	{r0, r1, r2, r3, r4, r5, r6, lr}
 80136b6:	4d0f      	ldr	r5, [pc, #60]	; (80136f4 <shci_init+0x40>)
 80136b8:	4b0f      	ldr	r3, [pc, #60]	; (80136f8 <shci_init+0x44>)
 80136ba:	684a      	ldr	r2, [r1, #4]
 80136bc:	61e8      	str	r0, [r5, #28]
 80136be:	460c      	mov	r4, r1
 80136c0:	4628      	mov	r0, r5
 80136c2:	601a      	str	r2, [r3, #0]
 80136c4:	f000 f890 	bl	80137e8 <shci_register_io_bus>
 80136c8:	6826      	ldr	r6, [r4, #0]
 80136ca:	4c0c      	ldr	r4, [pc, #48]	; (80136fc <shci_init+0x48>)
 80136cc:	4620      	mov	r0, r4
 80136ce:	60e6      	str	r6, [r4, #12]
 80136d0:	f000 f9e4 	bl	8013a9c <LST_init_head>
 80136d4:	f7ff ffe2 	bl	801369c <Cmd_SetStatus.constprop.0>
 80136d8:	2301      	movs	r3, #1
 80136da:	7423      	strb	r3, [r4, #16]
 80136dc:	682b      	ldr	r3, [r5, #0]
 80136de:	b133      	cbz	r3, 80136ee <shci_init+0x3a>
 80136e0:	4a07      	ldr	r2, [pc, #28]	; (8013700 <shci_init+0x4c>)
 80136e2:	9201      	str	r2, [sp, #4]
 80136e4:	4a07      	ldr	r2, [pc, #28]	; (8013704 <shci_init+0x50>)
 80136e6:	9603      	str	r6, [sp, #12]
 80136e8:	9202      	str	r2, [sp, #8]
 80136ea:	a801      	add	r0, sp, #4
 80136ec:	4798      	blx	r3
 80136ee:	b004      	add	sp, #16
 80136f0:	bd70      	pop	{r4, r5, r6, pc}
 80136f2:	bf00      	nop
 80136f4:	200012d0 	.word	0x200012d0
 80136f8:	200012cc 	.word	0x200012cc
 80136fc:	20001128 	.word	0x20001128
 8013700:	080137dd 	.word	0x080137dd
 8013704:	08013685 	.word	0x08013685

08013708 <shci_user_evt_proc>:
 8013708:	b51f      	push	{r0, r1, r2, r3, r4, lr}
 801370a:	4c17      	ldr	r4, [pc, #92]	; (8013768 <shci_user_evt_proc+0x60>)
 801370c:	4620      	mov	r0, r4
 801370e:	f000 f9c8 	bl	8013aa2 <LST_is_empty>
 8013712:	b9b0      	cbnz	r0, 8013742 <shci_user_evt_proc+0x3a>
 8013714:	7c23      	ldrb	r3, [r4, #16]
 8013716:	b1a3      	cbz	r3, 8013742 <shci_user_evt_proc+0x3a>
 8013718:	a901      	add	r1, sp, #4
 801371a:	4620      	mov	r0, r4
 801371c:	f000 f9ee 	bl	8013afc <LST_remove_head>
 8013720:	4b12      	ldr	r3, [pc, #72]	; (801376c <shci_user_evt_proc+0x64>)
 8013722:	69da      	ldr	r2, [r3, #28]
 8013724:	2301      	movs	r3, #1
 8013726:	b1ba      	cbz	r2, 8013758 <shci_user_evt_proc+0x50>
 8013728:	9901      	ldr	r1, [sp, #4]
 801372a:	f88d 3008 	strb.w	r3, [sp, #8]
 801372e:	9103      	str	r1, [sp, #12]
 8013730:	a802      	add	r0, sp, #8
 8013732:	4790      	blx	r2
 8013734:	f89d 3008 	ldrb.w	r3, [sp, #8]
 8013738:	7423      	strb	r3, [r4, #16]
 801373a:	b17b      	cbz	r3, 801375c <shci_user_evt_proc+0x54>
 801373c:	9801      	ldr	r0, [sp, #4]
 801373e:	f000 f957 	bl	80139f0 <TL_MM_EvtDone>
 8013742:	4809      	ldr	r0, [pc, #36]	; (8013768 <shci_user_evt_proc+0x60>)
 8013744:	f000 f9ad 	bl	8013aa2 <LST_is_empty>
 8013748:	b920      	cbnz	r0, 8013754 <shci_user_evt_proc+0x4c>
 801374a:	7c23      	ldrb	r3, [r4, #16]
 801374c:	b113      	cbz	r3, 8013754 <shci_user_evt_proc+0x4c>
 801374e:	4806      	ldr	r0, [pc, #24]	; (8013768 <shci_user_evt_proc+0x60>)
 8013750:	f7fd f81e 	bl	8010790 <shci_notify_asynch_evt>
 8013754:	b004      	add	sp, #16
 8013756:	bd10      	pop	{r4, pc}
 8013758:	7423      	strb	r3, [r4, #16]
 801375a:	e7ef      	b.n	801373c <shci_user_evt_proc+0x34>
 801375c:	9901      	ldr	r1, [sp, #4]
 801375e:	4620      	mov	r0, r4
 8013760:	f000 f9a9 	bl	8013ab6 <LST_insert_head>
 8013764:	e7ed      	b.n	8013742 <shci_user_evt_proc+0x3a>
 8013766:	bf00      	nop
 8013768:	20001128 	.word	0x20001128
 801376c:	200012d0 	.word	0x200012d0

08013770 <shci_send>:
 8013770:	e92d 41f3 	stmdb	sp!, {r0, r1, r4, r5, r6, r7, r8, lr}
 8013774:	461d      	mov	r5, r3
 8013776:	4b16      	ldr	r3, [pc, #88]	; (80137d0 <shci_send+0x60>)
 8013778:	681b      	ldr	r3, [r3, #0]
 801377a:	460c      	mov	r4, r1
 801377c:	4607      	mov	r7, r0
 801377e:	4611      	mov	r1, r2
 8013780:	b11b      	cbz	r3, 801378a <shci_send+0x1a>
 8013782:	2000      	movs	r0, #0
 8013784:	9201      	str	r2, [sp, #4]
 8013786:	4798      	blx	r3
 8013788:	9901      	ldr	r1, [sp, #4]
 801378a:	4e12      	ldr	r6, [pc, #72]	; (80137d4 <shci_send+0x64>)
 801378c:	68f0      	ldr	r0, [r6, #12]
 801378e:	4622      	mov	r2, r4
 8013790:	f04f 0800 	mov.w	r8, #0
 8013794:	f8a0 7009 	strh.w	r7, [r0, #9]
 8013798:	72c4      	strb	r4, [r0, #11]
 801379a:	300c      	adds	r0, #12
 801379c:	f886 8008 	strb.w	r8, [r6, #8]
 80137a0:	f000 fb30 	bl	8013e04 <memcpy>
 80137a4:	4b0c      	ldr	r3, [pc, #48]	; (80137d8 <shci_send+0x68>)
 80137a6:	4641      	mov	r1, r8
 80137a8:	691b      	ldr	r3, [r3, #16]
 80137aa:	4640      	mov	r0, r8
 80137ac:	4798      	blx	r3
 80137ae:	f248 00e8 	movw	r0, #33000	; 0x80e8
 80137b2:	f7fc fff4 	bl	801079e <shci_cmd_resp_wait>
 80137b6:	68f1      	ldr	r1, [r6, #12]
 80137b8:	788a      	ldrb	r2, [r1, #2]
 80137ba:	f105 0008 	add.w	r0, r5, #8
 80137be:	3203      	adds	r2, #3
 80137c0:	f000 fb20 	bl	8013e04 <memcpy>
 80137c4:	b002      	add	sp, #8
 80137c6:	e8bd 41f0 	ldmia.w	sp!, {r4, r5, r6, r7, r8, lr}
 80137ca:	f7ff bf67 	b.w	801369c <Cmd_SetStatus.constprop.0>
 80137ce:	bf00      	nop
 80137d0:	200012cc 	.word	0x200012cc
 80137d4:	20001128 	.word	0x20001128
 80137d8:	200012d0 	.word	0x200012d0

080137dc <TlCmdEvtReceived>:
 80137dc:	b508      	push	{r3, lr}
 80137de:	2000      	movs	r0, #0
 80137e0:	f7fc ffda 	bl	8010798 <shci_cmd_resp_release>
 80137e4:	bd08      	pop	{r3, pc}
	...

080137e8 <shci_register_io_bus>:
 80137e8:	4b02      	ldr	r3, [pc, #8]	; (80137f4 <shci_register_io_bus+0xc>)
 80137ea:	6003      	str	r3, [r0, #0]
 80137ec:	4b02      	ldr	r3, [pc, #8]	; (80137f8 <shci_register_io_bus+0x10>)
 80137ee:	6103      	str	r3, [r0, #16]
 80137f0:	4770      	bx	lr
 80137f2:	bf00      	nop
 80137f4:	08013915 	.word	0x08013915
 80137f8:	08013951 	.word	0x08013951

080137fc <SendFreeBuf>:
 80137fc:	b537      	push	{r0, r1, r2, r4, r5, lr}
 80137fe:	4c09      	ldr	r4, [pc, #36]	; (8013824 <SendFreeBuf+0x28>)
 8013800:	4d09      	ldr	r5, [pc, #36]	; (8013828 <SendFreeBuf+0x2c>)
 8013802:	4808      	ldr	r0, [pc, #32]	; (8013824 <SendFreeBuf+0x28>)
 8013804:	f000 f94d 	bl	8013aa2 <LST_is_empty>
 8013808:	b108      	cbz	r0, 801380e <SendFreeBuf+0x12>
 801380a:	b003      	add	sp, #12
 801380c:	bd30      	pop	{r4, r5, pc}
 801380e:	a901      	add	r1, sp, #4
 8013810:	4620      	mov	r0, r4
 8013812:	f000 f973 	bl	8013afc <LST_remove_head>
 8013816:	692b      	ldr	r3, [r5, #16]
 8013818:	9901      	ldr	r1, [sp, #4]
 801381a:	6918      	ldr	r0, [r3, #16]
 801381c:	f000 f957 	bl	8013ace <LST_insert_tail>
 8013820:	e7ef      	b.n	8013802 <SendFreeBuf+0x6>
 8013822:	bf00      	nop
 8013824:	200012f8 	.word	0x200012f8
 8013828:	20030000 	.word	0x20030000

0801382c <TL_Enable>:
 801382c:	f7fd befe 	b.w	801162c <HW_IPCC_Enable>

08013830 <TL_Init>:
 8013830:	4b0f      	ldr	r3, [pc, #60]	; (8013870 <TL_Init+0x40>)
 8013832:	4a10      	ldr	r2, [pc, #64]	; (8013874 <TL_Init+0x44>)
 8013834:	f103 0120 	add.w	r1, r3, #32
 8013838:	6013      	str	r3, [r2, #0]
 801383a:	6051      	str	r1, [r2, #4]
 801383c:	f103 0130 	add.w	r1, r3, #48	; 0x30
 8013840:	6091      	str	r1, [r2, #8]
 8013842:	f103 013c 	add.w	r1, r3, #60	; 0x3c
 8013846:	6211      	str	r1, [r2, #32]
 8013848:	f103 0144 	add.w	r1, r3, #68	; 0x44
 801384c:	6251      	str	r1, [r2, #36]	; 0x24
 801384e:	f103 014c 	add.w	r1, r3, #76	; 0x4c
 8013852:	60d1      	str	r1, [r2, #12]
 8013854:	f103 0154 	add.w	r1, r3, #84	; 0x54
 8013858:	6111      	str	r1, [r2, #16]
 801385a:	f103 0170 	add.w	r1, r3, #112	; 0x70
 801385e:	6151      	str	r1, [r2, #20]
 8013860:	f103 0174 	add.w	r1, r3, #116	; 0x74
 8013864:	3380      	adds	r3, #128	; 0x80
 8013866:	6191      	str	r1, [r2, #24]
 8013868:	61d3      	str	r3, [r2, #28]
 801386a:	f7fd bf07 	b.w	801167c <HW_IPCC_Init>
 801386e:	bf00      	nop
 8013870:	20030134 	.word	0x20030134
 8013874:	20030000 	.word	0x20030000

08013878 <TL_BLE_Init>:
 8013878:	b538      	push	{r3, r4, r5, lr}
 801387a:	4d0c      	ldr	r5, [pc, #48]	; (80138ac <TL_BLE_Init+0x34>)
 801387c:	4604      	mov	r4, r0
 801387e:	4628      	mov	r0, r5
 8013880:	f000 f90c 	bl	8013a9c <LST_init_head>
 8013884:	4b0a      	ldr	r3, [pc, #40]	; (80138b0 <TL_BLE_Init+0x38>)
 8013886:	68a2      	ldr	r2, [r4, #8]
 8013888:	685b      	ldr	r3, [r3, #4]
 801388a:	601a      	str	r2, [r3, #0]
 801388c:	68e2      	ldr	r2, [r4, #12]
 801388e:	60da      	str	r2, [r3, #12]
 8013890:	4a08      	ldr	r2, [pc, #32]	; (80138b4 <TL_BLE_Init+0x3c>)
 8013892:	e9c3 2501 	strd	r2, r5, [r3, #4]
 8013896:	f7fd ff11 	bl	80116bc <HW_IPCC_BLE_Init>
 801389a:	4b07      	ldr	r3, [pc, #28]	; (80138b8 <TL_BLE_Init+0x40>)
 801389c:	6822      	ldr	r2, [r4, #0]
 801389e:	601a      	str	r2, [r3, #0]
 80138a0:	4b06      	ldr	r3, [pc, #24]	; (80138bc <TL_BLE_Init+0x44>)
 80138a2:	6862      	ldr	r2, [r4, #4]
 80138a4:	601a      	str	r2, [r3, #0]
 80138a6:	2000      	movs	r0, #0
 80138a8:	bd38      	pop	{r3, r4, r5, pc}
 80138aa:	bf00      	nop
 80138ac:	200301c0 	.word	0x200301c0
 80138b0:	20030000 	.word	0x20030000
 80138b4:	20030a48 	.word	0x20030a48
 80138b8:	200012f4 	.word	0x200012f4
 80138bc:	200012f0 	.word	0x200012f0

080138c0 <TL_BLE_SendCmd>:
 80138c0:	b508      	push	{r3, lr}
 80138c2:	4b05      	ldr	r3, [pc, #20]	; (80138d8 <TL_BLE_SendCmd+0x18>)
 80138c4:	685a      	ldr	r2, [r3, #4]
 80138c6:	685b      	ldr	r3, [r3, #4]
 80138c8:	6812      	ldr	r2, [r2, #0]
 80138ca:	2101      	movs	r1, #1
 80138cc:	7211      	strb	r1, [r2, #8]
 80138ce:	f7fd fefd 	bl	80116cc <HW_IPCC_BLE_SendCmd>
 80138d2:	2000      	movs	r0, #0
 80138d4:	bd08      	pop	{r3, pc}
 80138d6:	bf00      	nop
 80138d8:	20030000 	.word	0x20030000

080138dc <HW_IPCC_BLE_RxEvtNot>:
 80138dc:	b537      	push	{r0, r1, r2, r4, r5, lr}
 80138de:	4c08      	ldr	r4, [pc, #32]	; (8013900 <HW_IPCC_BLE_RxEvtNot+0x24>)
 80138e0:	4d08      	ldr	r5, [pc, #32]	; (8013904 <HW_IPCC_BLE_RxEvtNot+0x28>)
 80138e2:	4807      	ldr	r0, [pc, #28]	; (8013900 <HW_IPCC_BLE_RxEvtNot+0x24>)
 80138e4:	f000 f8dd 	bl	8013aa2 <LST_is_empty>
 80138e8:	b108      	cbz	r0, 80138ee <HW_IPCC_BLE_RxEvtNot+0x12>
 80138ea:	b003      	add	sp, #12
 80138ec:	bd30      	pop	{r4, r5, pc}
 80138ee:	4620      	mov	r0, r4
 80138f0:	a901      	add	r1, sp, #4
 80138f2:	f000 f903 	bl	8013afc <LST_remove_head>
 80138f6:	682b      	ldr	r3, [r5, #0]
 80138f8:	9801      	ldr	r0, [sp, #4]
 80138fa:	4798      	blx	r3
 80138fc:	e7f1      	b.n	80138e2 <HW_IPCC_BLE_RxEvtNot+0x6>
 80138fe:	bf00      	nop
 8013900:	200301c0 	.word	0x200301c0
 8013904:	200012f4 	.word	0x200012f4

08013908 <HW_IPCC_BLE_AclDataAckNot>:
 8013908:	4b01      	ldr	r3, [pc, #4]	; (8013910 <HW_IPCC_BLE_AclDataAckNot+0x8>)
 801390a:	681b      	ldr	r3, [r3, #0]
 801390c:	4718      	bx	r3
 801390e:	bf00      	nop
 8013910:	200012f0 	.word	0x200012f0

08013914 <TL_SYS_Init>:
 8013914:	b538      	push	{r3, r4, r5, lr}
 8013916:	4d0a      	ldr	r5, [pc, #40]	; (8013940 <TL_SYS_Init+0x2c>)
 8013918:	4604      	mov	r4, r0
 801391a:	4628      	mov	r0, r5
 801391c:	f000 f8be 	bl	8013a9c <LST_init_head>
 8013920:	4b08      	ldr	r3, [pc, #32]	; (8013944 <TL_SYS_Init+0x30>)
 8013922:	68a2      	ldr	r2, [r4, #8]
 8013924:	68db      	ldr	r3, [r3, #12]
 8013926:	e9c3 2500 	strd	r2, r5, [r3]
 801392a:	f7fd fed7 	bl	80116dc <HW_IPCC_SYS_Init>
 801392e:	4b06      	ldr	r3, [pc, #24]	; (8013948 <TL_SYS_Init+0x34>)
 8013930:	6822      	ldr	r2, [r4, #0]
 8013932:	601a      	str	r2, [r3, #0]
 8013934:	4b05      	ldr	r3, [pc, #20]	; (801394c <TL_SYS_Init+0x38>)
 8013936:	6862      	ldr	r2, [r4, #4]
 8013938:	601a      	str	r2, [r3, #0]
 801393a:	2000      	movs	r0, #0
 801393c:	bd38      	pop	{r3, r4, r5, pc}
 801393e:	bf00      	nop
 8013940:	200301c8 	.word	0x200301c8
 8013944:	20030000 	.word	0x20030000
 8013948:	20001300 	.word	0x20001300
 801394c:	20001304 	.word	0x20001304

08013950 <TL_SYS_SendCmd>:
 8013950:	b508      	push	{r3, lr}
 8013952:	4b05      	ldr	r3, [pc, #20]	; (8013968 <TL_SYS_SendCmd+0x18>)
 8013954:	68da      	ldr	r2, [r3, #12]
 8013956:	68db      	ldr	r3, [r3, #12]
 8013958:	6812      	ldr	r2, [r2, #0]
 801395a:	2110      	movs	r1, #16
 801395c:	7211      	strb	r1, [r2, #8]
 801395e:	f7fd fec5 	bl	80116ec <HW_IPCC_SYS_SendCmd>
 8013962:	2000      	movs	r0, #0
 8013964:	bd08      	pop	{r3, pc}
 8013966:	bf00      	nop
 8013968:	20030000 	.word	0x20030000

0801396c <HW_IPCC_SYS_CmdEvtNot>:
 801396c:	4b03      	ldr	r3, [pc, #12]	; (801397c <HW_IPCC_SYS_CmdEvtNot+0x10>)
 801396e:	68da      	ldr	r2, [r3, #12]
 8013970:	68da      	ldr	r2, [r3, #12]
 8013972:	4b03      	ldr	r3, [pc, #12]	; (8013980 <HW_IPCC_SYS_CmdEvtNot+0x14>)
 8013974:	6810      	ldr	r0, [r2, #0]
 8013976:	681b      	ldr	r3, [r3, #0]
 8013978:	4718      	bx	r3
 801397a:	bf00      	nop
 801397c:	20030000 	.word	0x20030000
 8013980:	20001300 	.word	0x20001300

08013984 <HW_IPCC_SYS_EvtNot>:
 8013984:	b537      	push	{r0, r1, r2, r4, r5, lr}
 8013986:	4c08      	ldr	r4, [pc, #32]	; (80139a8 <HW_IPCC_SYS_EvtNot+0x24>)
 8013988:	4d08      	ldr	r5, [pc, #32]	; (80139ac <HW_IPCC_SYS_EvtNot+0x28>)
 801398a:	4807      	ldr	r0, [pc, #28]	; (80139a8 <HW_IPCC_SYS_EvtNot+0x24>)
 801398c:	f000 f889 	bl	8013aa2 <LST_is_empty>
 8013990:	b108      	cbz	r0, 8013996 <HW_IPCC_SYS_EvtNot+0x12>
 8013992:	b003      	add	sp, #12
 8013994:	bd30      	pop	{r4, r5, pc}
 8013996:	4620      	mov	r0, r4
 8013998:	a901      	add	r1, sp, #4
 801399a:	f000 f8af 	bl	8013afc <LST_remove_head>
 801399e:	682b      	ldr	r3, [r5, #0]
 80139a0:	9801      	ldr	r0, [sp, #4]
 80139a2:	4798      	blx	r3
 80139a4:	e7f1      	b.n	801398a <HW_IPCC_SYS_EvtNot+0x6>
 80139a6:	bf00      	nop
 80139a8:	200301c8 	.word	0x200301c8
 80139ac:	20001304 	.word	0x20001304

080139b0 <TL_MM_Init>:
 80139b0:	b538      	push	{r3, r4, r5, lr}
 80139b2:	4d0c      	ldr	r5, [pc, #48]	; (80139e4 <TL_MM_Init+0x34>)
 80139b4:	4604      	mov	r4, r0
 80139b6:	4628      	mov	r0, r5
 80139b8:	f000 f870 	bl	8013a9c <LST_init_head>
 80139bc:	480a      	ldr	r0, [pc, #40]	; (80139e8 <TL_MM_Init+0x38>)
 80139be:	f000 f86d 	bl	8013a9c <LST_init_head>
 80139c2:	4b0a      	ldr	r3, [pc, #40]	; (80139ec <TL_MM_Init+0x3c>)
 80139c4:	68a2      	ldr	r2, [r4, #8]
 80139c6:	691b      	ldr	r3, [r3, #16]
 80139c8:	609a      	str	r2, [r3, #8]
 80139ca:	68e2      	ldr	r2, [r4, #12]
 80139cc:	e9c3 2503 	strd	r2, r5, [r3, #12]
 80139d0:	6822      	ldr	r2, [r4, #0]
 80139d2:	601a      	str	r2, [r3, #0]
 80139d4:	6862      	ldr	r2, [r4, #4]
 80139d6:	605a      	str	r2, [r3, #4]
 80139d8:	6922      	ldr	r2, [r4, #16]
 80139da:	615a      	str	r2, [r3, #20]
 80139dc:	6962      	ldr	r2, [r4, #20]
 80139de:	619a      	str	r2, [r3, #24]
 80139e0:	bd38      	pop	{r3, r4, r5, pc}
 80139e2:	bf00      	nop
 80139e4:	200301d0 	.word	0x200301d0
 80139e8:	200012f8 	.word	0x200012f8
 80139ec:	20030000 	.word	0x20030000

080139f0 <TL_MM_EvtDone>:
 80139f0:	b508      	push	{r3, lr}
 80139f2:	4601      	mov	r1, r0
 80139f4:	4803      	ldr	r0, [pc, #12]	; (8013a04 <TL_MM_EvtDone+0x14>)
 80139f6:	f000 f86a 	bl	8013ace <LST_insert_tail>
 80139fa:	e8bd 4008 	ldmia.w	sp!, {r3, lr}
 80139fe:	4802      	ldr	r0, [pc, #8]	; (8013a08 <TL_MM_EvtDone+0x18>)
 8013a00:	f7fd bec2 	b.w	8011788 <HW_IPCC_MM_SendFreeBuf>
 8013a04:	200012f8 	.word	0x200012f8
 8013a08:	080137fd 	.word	0x080137fd

08013a0c <TL_TRACES_Init>:
 8013a0c:	b510      	push	{r4, lr}
 8013a0e:	4c05      	ldr	r4, [pc, #20]	; (8013a24 <TL_TRACES_Init+0x18>)
 8013a10:	4620      	mov	r0, r4
 8013a12:	f000 f843 	bl	8013a9c <LST_init_head>
 8013a16:	4b04      	ldr	r3, [pc, #16]	; (8013a28 <TL_TRACES_Init+0x1c>)
 8013a18:	695b      	ldr	r3, [r3, #20]
 8013a1a:	601c      	str	r4, [r3, #0]
 8013a1c:	e8bd 4010 	ldmia.w	sp!, {r4, lr}
 8013a20:	f7fd bec8 	b.w	80117b4 <HW_IPCC_TRACES_Init>
 8013a24:	200301d8 	.word	0x200301d8
 8013a28:	20030000 	.word	0x20030000

08013a2c <TL_TRACES_EvtReceived>:
 8013a2c:	4770      	bx	lr
	...

08013a30 <HW_IPCC_TRACES_EvtNot>:
 8013a30:	b513      	push	{r0, r1, r4, lr}
 8013a32:	4c07      	ldr	r4, [pc, #28]	; (8013a50 <HW_IPCC_TRACES_EvtNot+0x20>)
 8013a34:	4806      	ldr	r0, [pc, #24]	; (8013a50 <HW_IPCC_TRACES_EvtNot+0x20>)
 8013a36:	f000 f834 	bl	8013aa2 <LST_is_empty>
 8013a3a:	b108      	cbz	r0, 8013a40 <HW_IPCC_TRACES_EvtNot+0x10>
 8013a3c:	b002      	add	sp, #8
 8013a3e:	bd10      	pop	{r4, pc}
 8013a40:	4620      	mov	r0, r4
 8013a42:	a901      	add	r1, sp, #4
 8013a44:	f000 f85a 	bl	8013afc <LST_remove_head>
 8013a48:	9801      	ldr	r0, [sp, #4]
 8013a4a:	f7ff ffef 	bl	8013a2c <TL_TRACES_EvtReceived>
 8013a4e:	e7f1      	b.n	8013a34 <HW_IPCC_TRACES_EvtNot+0x4>
 8013a50:	200301d8 	.word	0x200301d8

08013a54 <DbgTraceInit>:
 8013a54:	b507      	push	{r0, r1, r2, lr}
 8013a56:	f7fc fdbd 	bl	80105d4 <DbgOutputInit>
 8013a5a:	2302      	movs	r3, #2
 8013a5c:	9300      	str	r3, [sp, #0]
 8013a5e:	4905      	ldr	r1, [pc, #20]	; (8013a74 <DbgTraceInit+0x20>)
 8013a60:	4805      	ldr	r0, [pc, #20]	; (8013a78 <DbgTraceInit+0x24>)
 8013a62:	2300      	movs	r3, #0
 8013a64:	f44f 5280 	mov.w	r2, #4096	; 0x1000
 8013a68:	f000 f854 	bl	8013b14 <CircularQueue_Init>
 8013a6c:	b003      	add	sp, #12
 8013a6e:	f85d fb04 	ldr.w	pc, [sp], #4
 8013a72:	bf00      	nop
 8013a74:	20001328 	.word	0x20001328
 8013a78:	20001308 	.word	0x20001308

08013a7c <OTP_Read>:
 8013a7c:	4603      	mov	r3, r0
 8013a7e:	4a05      	ldr	r2, [pc, #20]	; (8013a94 <OTP_Read+0x18>)
 8013a80:	4805      	ldr	r0, [pc, #20]	; (8013a98 <OTP_Read+0x1c>)
 8013a82:	79c1      	ldrb	r1, [r0, #7]
 8013a84:	4299      	cmp	r1, r3
 8013a86:	d002      	beq.n	8013a8e <OTP_Read+0x12>
 8013a88:	4290      	cmp	r0, r2
 8013a8a:	d101      	bne.n	8013a90 <OTP_Read+0x14>
 8013a8c:	2000      	movs	r0, #0
 8013a8e:	4770      	bx	lr
 8013a90:	3808      	subs	r0, #8
 8013a92:	e7f6      	b.n	8013a82 <OTP_Read+0x6>
 8013a94:	1fff7000 	.word	0x1fff7000
 8013a98:	1fff73f8 	.word	0x1fff73f8

08013a9c <LST_init_head>:
 8013a9c:	6000      	str	r0, [r0, #0]
 8013a9e:	6040      	str	r0, [r0, #4]
 8013aa0:	4770      	bx	lr

08013aa2 <LST_is_empty>:
 8013aa2:	f3ef 8310 	mrs	r3, PRIMASK
 8013aa6:	b672      	cpsid	i
 8013aa8:	6802      	ldr	r2, [r0, #0]
 8013aaa:	1a82      	subs	r2, r0, r2
 8013aac:	4250      	negs	r0, r2
 8013aae:	4150      	adcs	r0, r2
 8013ab0:	f383 8810 	msr	PRIMASK, r3
 8013ab4:	4770      	bx	lr

08013ab6 <LST_insert_head>:
 8013ab6:	f3ef 8310 	mrs	r3, PRIMASK
 8013aba:	b672      	cpsid	i
 8013abc:	6802      	ldr	r2, [r0, #0]
 8013abe:	600a      	str	r2, [r1, #0]
 8013ac0:	6048      	str	r0, [r1, #4]
 8013ac2:	6001      	str	r1, [r0, #0]
 8013ac4:	680a      	ldr	r2, [r1, #0]
 8013ac6:	6051      	str	r1, [r2, #4]
 8013ac8:	f383 8810 	msr	PRIMASK, r3
 8013acc:	4770      	bx	lr

08013ace <LST_insert_tail>:
 8013ace:	f3ef 8310 	mrs	r3, PRIMASK
 8013ad2:	b672      	cpsid	i
 8013ad4:	6008      	str	r0, [r1, #0]
 8013ad6:	6842      	ldr	r2, [r0, #4]
 8013ad8:	604a      	str	r2, [r1, #4]
 8013ada:	6041      	str	r1, [r0, #4]
 8013adc:	684a      	ldr	r2, [r1, #4]
 8013ade:	6011      	str	r1, [r2, #0]
 8013ae0:	f383 8810 	msr	PRIMASK, r3
 8013ae4:	4770      	bx	lr

08013ae6 <LST_remove_node>:
 8013ae6:	f3ef 8210 	mrs	r2, PRIMASK
 8013aea:	b672      	cpsid	i
 8013aec:	6843      	ldr	r3, [r0, #4]
 8013aee:	6801      	ldr	r1, [r0, #0]
 8013af0:	6019      	str	r1, [r3, #0]
 8013af2:	6801      	ldr	r1, [r0, #0]
 8013af4:	604b      	str	r3, [r1, #4]
 8013af6:	f382 8810 	msr	PRIMASK, r2
 8013afa:	4770      	bx	lr

08013afc <LST_remove_head>:
 8013afc:	b510      	push	{r4, lr}
 8013afe:	f3ef 8410 	mrs	r4, PRIMASK
 8013b02:	b672      	cpsid	i
 8013b04:	6803      	ldr	r3, [r0, #0]
 8013b06:	600b      	str	r3, [r1, #0]
 8013b08:	6800      	ldr	r0, [r0, #0]
 8013b0a:	f7ff ffec 	bl	8013ae6 <LST_remove_node>
 8013b0e:	f384 8810 	msr	PRIMASK, r4
 8013b12:	bd10      	pop	{r4, pc}

08013b14 <CircularQueue_Init>:
 8013b14:	b510      	push	{r4, lr}
 8013b16:	f89d 4008 	ldrb.w	r4, [sp, #8]
 8013b1a:	6001      	str	r1, [r0, #0]
 8013b1c:	2100      	movs	r1, #0
 8013b1e:	e9c0 1103 	strd	r1, r1, [r0, #12]
 8013b22:	e9c0 1105 	strd	r1, r1, [r0, #20]
 8013b26:	6042      	str	r2, [r0, #4]
 8013b28:	8103      	strh	r3, [r0, #8]
 8013b2a:	7704      	strb	r4, [r0, #28]
 8013b2c:	f014 0002 	ands.w	r0, r4, #2
 8013b30:	d003      	beq.n	8013b3a <CircularQueue_Init+0x26>
 8013b32:	1a58      	subs	r0, r3, r1
 8013b34:	bf18      	it	ne
 8013b36:	2001      	movne	r0, #1
 8013b38:	4240      	negs	r0, r0
 8013b3a:	bd10      	pop	{r4, pc}

08013b3c <UTIL_LPM_Init>:
 8013b3c:	4a02      	ldr	r2, [pc, #8]	; (8013b48 <UTIL_LPM_Init+0xc>)
 8013b3e:	2300      	movs	r3, #0
 8013b40:	6013      	str	r3, [r2, #0]
 8013b42:	4a02      	ldr	r2, [pc, #8]	; (8013b4c <UTIL_LPM_Init+0x10>)
 8013b44:	6013      	str	r3, [r2, #0]
 8013b46:	4770      	bx	lr
 8013b48:	2000232c 	.word	0x2000232c
 8013b4c:	20002328 	.word	0x20002328

08013b50 <UTIL_LPM_SetOffMode>:
 8013b50:	b510      	push	{r4, lr}
 8013b52:	f3ef 8410 	mrs	r4, PRIMASK
 8013b56:	b672      	cpsid	i
 8013b58:	b141      	cbz	r1, 8013b6c <UTIL_LPM_SetOffMode+0x1c>
 8013b5a:	2901      	cmp	r1, #1
 8013b5c:	d103      	bne.n	8013b66 <UTIL_LPM_SetOffMode+0x16>
 8013b5e:	4a06      	ldr	r2, [pc, #24]	; (8013b78 <UTIL_LPM_SetOffMode+0x28>)
 8013b60:	6813      	ldr	r3, [r2, #0]
 8013b62:	4318      	orrs	r0, r3
 8013b64:	6010      	str	r0, [r2, #0]
 8013b66:	f384 8810 	msr	PRIMASK, r4
 8013b6a:	bd10      	pop	{r4, pc}
 8013b6c:	4a02      	ldr	r2, [pc, #8]	; (8013b78 <UTIL_LPM_SetOffMode+0x28>)
 8013b6e:	6813      	ldr	r3, [r2, #0]
 8013b70:	ea23 0000 	bic.w	r0, r3, r0
 8013b74:	e7f6      	b.n	8013b64 <UTIL_LPM_SetOffMode+0x14>
 8013b76:	bf00      	nop
 8013b78:	20002328 	.word	0x20002328

08013b7c <UTIL_SEQ_SetTask>:
 8013b7c:	b510      	push	{r4, lr}
 8013b7e:	f3ef 8410 	mrs	r4, PRIMASK
 8013b82:	b672      	cpsid	i
 8013b84:	4a06      	ldr	r2, [pc, #24]	; (8013ba0 <UTIL_SEQ_SetTask+0x24>)
 8013b86:	6813      	ldr	r3, [r2, #0]
 8013b88:	4303      	orrs	r3, r0
 8013b8a:	6013      	str	r3, [r2, #0]
 8013b8c:	4a05      	ldr	r2, [pc, #20]	; (8013ba4 <UTIL_SEQ_SetTask+0x28>)
 8013b8e:	f852 3031 	ldr.w	r3, [r2, r1, lsl #3]
 8013b92:	4318      	orrs	r0, r3
 8013b94:	f842 0031 	str.w	r0, [r2, r1, lsl #3]
 8013b98:	f384 8810 	msr	PRIMASK, r4
 8013b9c:	bd10      	pop	{r4, pc}
 8013b9e:	bf00      	nop
 8013ba0:	200023cc 	.word	0x200023cc
 8013ba4:	200023bc 	.word	0x200023bc

08013ba8 <UTIL_SEQ_PauseTask>:
 8013ba8:	f3ef 8110 	mrs	r1, PRIMASK
 8013bac:	b672      	cpsid	i
 8013bae:	4a04      	ldr	r2, [pc, #16]	; (8013bc0 <UTIL_SEQ_PauseTask+0x18>)
 8013bb0:	6813      	ldr	r3, [r2, #0]
 8013bb2:	ea23 0000 	bic.w	r0, r3, r0
 8013bb6:	6010      	str	r0, [r2, #0]
 8013bb8:	f381 8810 	msr	PRIMASK, r1
 8013bbc:	4770      	bx	lr
 8013bbe:	bf00      	nop
 8013bc0:	20001048 	.word	0x20001048

08013bc4 <UTIL_SEQ_ResumeTask>:
 8013bc4:	f3ef 8110 	mrs	r1, PRIMASK
 8013bc8:	b672      	cpsid	i
 8013bca:	4a03      	ldr	r2, [pc, #12]	; (8013bd8 <UTIL_SEQ_ResumeTask+0x14>)
 8013bcc:	6813      	ldr	r3, [r2, #0]
 8013bce:	4318      	orrs	r0, r3
 8013bd0:	6010      	str	r0, [r2, #0]
 8013bd2:	f381 8810 	msr	PRIMASK, r1
 8013bd6:	4770      	bx	lr
 8013bd8:	20001048 	.word	0x20001048

08013bdc <UTIL_SEQ_SetEvt>:
 8013bdc:	f3ef 8110 	mrs	r1, PRIMASK
 8013be0:	b672      	cpsid	i
 8013be2:	4a03      	ldr	r2, [pc, #12]	; (8013bf0 <UTIL_SEQ_SetEvt+0x14>)
 8013be4:	6813      	ldr	r3, [r2, #0]
 8013be6:	4318      	orrs	r0, r3
 8013be8:	6010      	str	r0, [r2, #0]
 8013bea:	f381 8810 	msr	PRIMASK, r1
 8013bee:	4770      	bx	lr
 8013bf0:	20002334 	.word	0x20002334

08013bf4 <UTIL_SEQ_PreIdle>:
 8013bf4:	4770      	bx	lr
	...

08013bf8 <SEQ_BitPosition>:
 8013bf8:	0c03      	lsrs	r3, r0, #16
 8013bfa:	041b      	lsls	r3, r3, #16
 8013bfc:	b9c3      	cbnz	r3, 8013c30 <SEQ_BitPosition+0x38>
 8013bfe:	0400      	lsls	r0, r0, #16
 8013c00:	2310      	movs	r3, #16
 8013c02:	f010 4f7f 	tst.w	r0, #4278190080	; 0xff000000
 8013c06:	bf02      	ittt	eq
 8013c08:	3308      	addeq	r3, #8
 8013c0a:	0200      	lsleq	r0, r0, #8
 8013c0c:	b2db      	uxtbeq	r3, r3
 8013c0e:	f010 4f70 	tst.w	r0, #4026531840	; 0xf0000000
 8013c12:	bf08      	it	eq
 8013c14:	0100      	lsleq	r0, r0, #4
 8013c16:	4a07      	ldr	r2, [pc, #28]	; (8013c34 <SEQ_BitPosition+0x3c>)
 8013c18:	ea4f 7010 	mov.w	r0, r0, lsr #28
 8013c1c:	bf08      	it	eq
 8013c1e:	3304      	addeq	r3, #4
 8013c20:	5c10      	ldrb	r0, [r2, r0]
 8013c22:	bf08      	it	eq
 8013c24:	b2db      	uxtbeq	r3, r3
 8013c26:	f1c3 031f 	rsb	r3, r3, #31
 8013c2a:	1a18      	subs	r0, r3, r0
 8013c2c:	b2c0      	uxtb	r0, r0
 8013c2e:	4770      	bx	lr
 8013c30:	2300      	movs	r3, #0
 8013c32:	e7e6      	b.n	8013c02 <SEQ_BitPosition+0xa>
 8013c34:	08014114 	.word	0x08014114

08013c38 <UTIL_SEQ_Run>:
 8013c38:	e92d 4ff8 	stmdb	sp!, {r3, r4, r5, r6, r7, r8, r9, sl, fp, lr}
 8013c3c:	4c3b      	ldr	r4, [pc, #236]	; (8013d2c <UTIL_SEQ_Run+0xf4>)
 8013c3e:	f8df 90fc 	ldr.w	r9, [pc, #252]	; 8013d3c <UTIL_SEQ_Run+0x104>
 8013c42:	6826      	ldr	r6, [r4, #0]
 8013c44:	4f3a      	ldr	r7, [pc, #232]	; (8013d30 <UTIL_SEQ_Run+0xf8>)
 8013c46:	4030      	ands	r0, r6
 8013c48:	6020      	str	r0, [r4, #0]
 8013c4a:	464d      	mov	r5, r9
 8013c4c:	683a      	ldr	r2, [r7, #0]
 8013c4e:	f8d9 3000 	ldr.w	r3, [r9]
 8013c52:	6820      	ldr	r0, [r4, #0]
 8013c54:	f8df 80e8 	ldr.w	r8, [pc, #232]	; 8013d40 <UTIL_SEQ_Run+0x108>
 8013c58:	f8df b0e8 	ldr.w	fp, [pc, #232]	; 8013d44 <UTIL_SEQ_Run+0x10c>
 8013c5c:	f8df a0e8 	ldr.w	sl, [pc, #232]	; 8013d48 <UTIL_SEQ_Run+0x110>
 8013c60:	4013      	ands	r3, r2
 8013c62:	4203      	tst	r3, r0
 8013c64:	d044      	beq.n	8013cf0 <UTIL_SEQ_Run+0xb8>
 8013c66:	f8db 1000 	ldr.w	r1, [fp]
 8013c6a:	f8da 3000 	ldr.w	r3, [sl]
 8013c6e:	400b      	ands	r3, r1
 8013c70:	d13e      	bne.n	8013cf0 <UTIL_SEQ_Run+0xb8>
 8013c72:	4930      	ldr	r1, [pc, #192]	; (8013d34 <UTIL_SEQ_Run+0xfc>)
 8013c74:	4002      	ands	r2, r0
 8013c76:	6808      	ldr	r0, [r1, #0]
 8013c78:	4010      	ands	r0, r2
 8013c7a:	468a      	mov	sl, r1
 8013c7c:	d102      	bne.n	8013c84 <UTIL_SEQ_Run+0x4c>
 8013c7e:	6888      	ldr	r0, [r1, #8]
 8013c80:	2301      	movs	r3, #1
 8013c82:	4010      	ands	r0, r2
 8013c84:	ea4f 0cc3 	mov.w	ip, r3, lsl #3
 8013c88:	eb0a 03c3 	add.w	r3, sl, r3, lsl #3
 8013c8c:	44e2      	add	sl, ip
 8013c8e:	685a      	ldr	r2, [r3, #4]
 8013c90:	4210      	tst	r0, r2
 8013c92:	bf04      	itt	eq
 8013c94:	f04f 32ff 	moveq.w	r2, #4294967295	; 0xffffffff
 8013c98:	605a      	streq	r2, [r3, #4]
 8013c9a:	f8da b004 	ldr.w	fp, [sl, #4]
 8013c9e:	ea0b 0000 	and.w	r0, fp, r0
 8013ca2:	f7ff ffa9 	bl	8013bf8 <SEQ_BitPosition>
 8013ca6:	2201      	movs	r2, #1
 8013ca8:	f8c8 0000 	str.w	r0, [r8]
 8013cac:	fa02 f000 	lsl.w	r0, r2, r0
 8013cb0:	ea2b 0000 	bic.w	r0, fp, r0
 8013cb4:	f8ca 0004 	str.w	r0, [sl, #4]
 8013cb8:	f3ef 8c10 	mrs	ip, PRIMASK
 8013cbc:	b672      	cpsid	i
 8013cbe:	f8d8 3000 	ldr.w	r3, [r8]
 8013cc2:	fa02 f003 	lsl.w	r0, r2, r3
 8013cc6:	682a      	ldr	r2, [r5, #0]
 8013cc8:	680b      	ldr	r3, [r1, #0]
 8013cca:	ea22 0200 	bic.w	r2, r2, r0
 8013cce:	602a      	str	r2, [r5, #0]
 8013cd0:	688a      	ldr	r2, [r1, #8]
 8013cd2:	ea23 0300 	bic.w	r3, r3, r0
 8013cd6:	ea22 0200 	bic.w	r2, r2, r0
 8013cda:	608a      	str	r2, [r1, #8]
 8013cdc:	600b      	str	r3, [r1, #0]
 8013cde:	f38c 8810 	msr	PRIMASK, ip
 8013ce2:	4b15      	ldr	r3, [pc, #84]	; (8013d38 <UTIL_SEQ_Run+0x100>)
 8013ce4:	f8d8 2000 	ldr.w	r2, [r8]
 8013ce8:	f853 3022 	ldr.w	r3, [r3, r2, lsl #2]
 8013cec:	4798      	blx	r3
 8013cee:	e7ad      	b.n	8013c4c <UTIL_SEQ_Run+0x14>
 8013cf0:	f04f 33ff 	mov.w	r3, #4294967295	; 0xffffffff
 8013cf4:	f8c8 3000 	str.w	r3, [r8]
 8013cf8:	f7ff ff7c 	bl	8013bf4 <UTIL_SEQ_PreIdle>
 8013cfc:	f3ef 8810 	mrs	r8, PRIMASK
 8013d00:	b672      	cpsid	i
 8013d02:	683a      	ldr	r2, [r7, #0]
 8013d04:	682b      	ldr	r3, [r5, #0]
 8013d06:	f8da 1000 	ldr.w	r1, [sl]
 8013d0a:	4013      	ands	r3, r2
 8013d0c:	6822      	ldr	r2, [r4, #0]
 8013d0e:	4013      	ands	r3, r2
 8013d10:	f8db 2000 	ldr.w	r2, [fp]
 8013d14:	400a      	ands	r2, r1
 8013d16:	4313      	orrs	r3, r2
 8013d18:	d101      	bne.n	8013d1e <UTIL_SEQ_Run+0xe6>
 8013d1a:	f7fc fd2b 	bl	8010774 <UTIL_SEQ_Idle>
 8013d1e:	f388 8810 	msr	PRIMASK, r8
 8013d22:	f7fc fd29 	bl	8010778 <UTIL_SEQ_PostIdle>
 8013d26:	6026      	str	r6, [r4, #0]
 8013d28:	e8bd 8ff8 	ldmia.w	sp!, {r3, r4, r5, r6, r7, r8, r9, sl, fp, pc}
 8013d2c:	20001044 	.word	0x20001044
 8013d30:	20001048 	.word	0x20001048
 8013d34:	200023bc 	.word	0x200023bc
 8013d38:	2000233c 	.word	0x2000233c
 8013d3c:	200023cc 	.word	0x200023cc
 8013d40:	20002330 	.word	0x20002330
 8013d44:	20002334 	.word	0x20002334
 8013d48:	20002338 	.word	0x20002338

08013d4c <UTIL_SEQ_WaitEvt>:
 8013d4c:	e92d 43f8 	stmdb	sp!, {r3, r4, r5, r6, r7, r8, r9, lr}
 8013d50:	4d0f      	ldr	r5, [pc, #60]	; (8013d90 <UTIL_SEQ_WaitEvt+0x44>)
 8013d52:	4c10      	ldr	r4, [pc, #64]	; (8013d94 <UTIL_SEQ_WaitEvt+0x48>)
 8013d54:	682f      	ldr	r7, [r5, #0]
 8013d56:	f8df 9040 	ldr.w	r9, [pc, #64]	; 8013d98 <UTIL_SEQ_WaitEvt+0x4c>
 8013d5a:	f8d4 8000 	ldr.w	r8, [r4]
 8013d5e:	6020      	str	r0, [r4, #0]
 8013d60:	1c7b      	adds	r3, r7, #1
 8013d62:	bf1a      	itte	ne
 8013d64:	2601      	movne	r6, #1
 8013d66:	40be      	lslne	r6, r7
 8013d68:	2600      	moveq	r6, #0
 8013d6a:	f8d9 3000 	ldr.w	r3, [r9]
 8013d6e:	6821      	ldr	r1, [r4, #0]
 8013d70:	420b      	tst	r3, r1
 8013d72:	d008      	beq.n	8013d86 <UTIL_SEQ_WaitEvt+0x3a>
 8013d74:	ea23 0301 	bic.w	r3, r3, r1
 8013d78:	602f      	str	r7, [r5, #0]
 8013d7a:	f8c9 3000 	str.w	r3, [r9]
 8013d7e:	f8c4 8000 	str.w	r8, [r4]
 8013d82:	e8bd 83f8 	ldmia.w	sp!, {r3, r4, r5, r6, r7, r8, r9, pc}
 8013d86:	4630      	mov	r0, r6
 8013d88:	f7fc fcfe 	bl	8010788 <UTIL_SEQ_EvtIdle>
 8013d8c:	e7ed      	b.n	8013d6a <UTIL_SEQ_WaitEvt+0x1e>
 8013d8e:	bf00      	nop
 8013d90:	20002330 	.word	0x20002330
 8013d94:	20002338 	.word	0x20002338
 8013d98:	20002334 	.word	0x20002334

08013d9c <UTIL_SEQ_RegTask>:
 8013d9c:	b510      	push	{r4, lr}
 8013d9e:	4611      	mov	r1, r2
 8013da0:	f3ef 8410 	mrs	r4, PRIMASK
 8013da4:	b672      	cpsid	i
 8013da6:	f7ff ff27 	bl	8013bf8 <SEQ_BitPosition>
 8013daa:	4b03      	ldr	r3, [pc, #12]	; (8013db8 <UTIL_SEQ_RegTask+0x1c>)
 8013dac:	f843 1020 	str.w	r1, [r3, r0, lsl #2]
 8013db0:	f384 8810 	msr	PRIMASK, r4
 8013db4:	bd10      	pop	{r4, pc}
 8013db6:	bf00      	nop
 8013db8:	2000233c 	.word	0x2000233c

08013dbc <__libc_init_array>:
 8013dbc:	b570      	push	{r4, r5, r6, lr}
 8013dbe:	4d0d      	ldr	r5, [pc, #52]	; (8013df4 <__libc_init_array+0x38>)
 8013dc0:	4c0d      	ldr	r4, [pc, #52]	; (8013df8 <__libc_init_array+0x3c>)
 8013dc2:	1b64      	subs	r4, r4, r5
 8013dc4:	10a4      	asrs	r4, r4, #2
 8013dc6:	2600      	movs	r6, #0
 8013dc8:	42a6      	cmp	r6, r4
 8013dca:	d109      	bne.n	8013de0 <__libc_init_array+0x24>
 8013dcc:	4d0b      	ldr	r5, [pc, #44]	; (8013dfc <__libc_init_array+0x40>)
 8013dce:	4c0c      	ldr	r4, [pc, #48]	; (8013e00 <__libc_init_array+0x44>)
 8013dd0:	f000 f82e 	bl	8013e30 <_init>
 8013dd4:	1b64      	subs	r4, r4, r5
 8013dd6:	10a4      	asrs	r4, r4, #2
 8013dd8:	2600      	movs	r6, #0
 8013dda:	42a6      	cmp	r6, r4
 8013ddc:	d105      	bne.n	8013dea <__libc_init_array+0x2e>
 8013dde:	bd70      	pop	{r4, r5, r6, pc}
 8013de0:	f855 3b04 	ldr.w	r3, [r5], #4
 8013de4:	4798      	blx	r3
 8013de6:	3601      	adds	r6, #1
 8013de8:	e7ee      	b.n	8013dc8 <__libc_init_array+0xc>
 8013dea:	f855 3b04 	ldr.w	r3, [r5], #4
 8013dee:	4798      	blx	r3
 8013df0:	3601      	adds	r6, #1
 8013df2:	e7f2      	b.n	8013dda <__libc_init_array+0x1e>
 8013df4:	0801412c 	.word	0x0801412c
 8013df8:	0801412c 	.word	0x0801412c
 8013dfc:	0801412c 	.word	0x0801412c
 8013e00:	08014130 	.word	0x08014130

08013e04 <memcpy>:
 8013e04:	440a      	add	r2, r1
 8013e06:	4291      	cmp	r1, r2
 8013e08:	f100 33ff 	add.w	r3, r0, #4294967295	; 0xffffffff
 8013e0c:	d100      	bne.n	8013e10 <memcpy+0xc>
 8013e0e:	4770      	bx	lr
 8013e10:	b510      	push	{r4, lr}
 8013e12:	f811 4b01 	ldrb.w	r4, [r1], #1
 8013e16:	f803 4f01 	strb.w	r4, [r3, #1]!
 8013e1a:	4291      	cmp	r1, r2
 8013e1c:	d1f9      	bne.n	8013e12 <memcpy+0xe>
 8013e1e:	bd10      	pop	{r4, pc}

08013e20 <memset>:
 8013e20:	4402      	add	r2, r0
 8013e22:	4603      	mov	r3, r0
 8013e24:	4293      	cmp	r3, r2
 8013e26:	d100      	bne.n	8013e2a <memset+0xa>
 8013e28:	4770      	bx	lr
 8013e2a:	f803 1b01 	strb.w	r1, [r3], #1
 8013e2e:	e7f9      	b.n	8013e24 <memset+0x4>

08013e30 <_init>:
 8013e30:	b5f8      	push	{r3, r4, r5, r6, r7, lr}
 8013e32:	bf00      	nop
 8013e34:	bcf8      	pop	{r3, r4, r5, r6, r7}
 8013e36:	bc08      	pop	{r3}
 8013e38:	469e      	mov	lr, r3
 8013e3a:	4770      	bx	lr

08013e3c <_fini>:
 8013e3c:	b5f8      	push	{r3, r4, r5, r6, r7, lr}
 8013e3e:	bf00      	nop
 8013e40:	bcf8      	pop	{r3, r4, r5, r6, r7}
 8013e42:	bc08      	pop	{r3}
 8013e44:	469e      	mov	lr, r3
 8013e46:	4770      	bx	lr

Disassembly of section .RamFunc:

08013e48 <FLASH_Program_Fast>:
 8013e48:	4b0a      	ldr	r3, [pc, #40]	; (8013e74 <FLASH_Program_Fast+0x2c>)
 8013e4a:	695a      	ldr	r2, [r3, #20]
 8013e4c:	f442 2280 	orr.w	r2, r2, #262144	; 0x40000
 8013e50:	b530      	push	{r4, r5, lr}
 8013e52:	615a      	str	r2, [r3, #20]
 8013e54:	f3ef 8410 	mrs	r4, PRIMASK
 8013e58:	b672      	cpsid	i
 8013e5a:	2200      	movs	r2, #0
 8013e5c:	588d      	ldr	r5, [r1, r2]
 8013e5e:	5085      	str	r5, [r0, r2]
 8013e60:	3204      	adds	r2, #4
 8013e62:	f5b2 7f00 	cmp.w	r2, #512	; 0x200
 8013e66:	d1f9      	bne.n	8013e5c <FLASH_Program_Fast+0x14>
 8013e68:	691a      	ldr	r2, [r3, #16]
 8013e6a:	03d2      	lsls	r2, r2, #15
 8013e6c:	d4fc      	bmi.n	8013e68 <FLASH_Program_Fast+0x20>
 8013e6e:	f384 8810 	msr	PRIMASK, r4
 8013e72:	bd30      	pop	{r4, r5, pc}
 8013e74:	58004000 	.word	0x58004000
